
rtarget:     file format elf64-x86-64


Disassembly of section .init:

0000000000400bb0 <_init>:
  400bb0:	48 83 ec 08          	sub    $0x8,%rsp
  400bb4:	48 8b 05 3d 44 20 00 	mov    0x20443d(%rip),%rax        # 604ff8 <__gmon_start__>
  400bbb:	48 85 c0             	test   %rax,%rax
  400bbe:	74 02                	je     400bc2 <_init+0x12>
  400bc0:	ff d0                	callq  *%rax
  400bc2:	48 83 c4 08          	add    $0x8,%rsp
  400bc6:	c3                   	retq   

Disassembly of section .plt:

0000000000400bd0 <.plt>:
  400bd0:	ff 35 32 44 20 00    	pushq  0x204432(%rip)        # 605008 <_GLOBAL_OFFSET_TABLE_+0x8>
  400bd6:	ff 25 34 44 20 00    	jmpq   *0x204434(%rip)        # 605010 <_GLOBAL_OFFSET_TABLE_+0x10>
  400bdc:	0f 1f 40 00          	nopl   0x0(%rax)

0000000000400be0 <strcasecmp@plt>:
  400be0:	ff 25 32 44 20 00    	jmpq   *0x204432(%rip)        # 605018 <strcasecmp@GLIBC_2.2.5>
  400be6:	68 00 00 00 00       	pushq  $0x0
  400beb:	e9 e0 ff ff ff       	jmpq   400bd0 <.plt>

0000000000400bf0 <__errno_location@plt>:
  400bf0:	ff 25 2a 44 20 00    	jmpq   *0x20442a(%rip)        # 605020 <__errno_location@GLIBC_2.2.5>
  400bf6:	68 01 00 00 00       	pushq  $0x1
  400bfb:	e9 d0 ff ff ff       	jmpq   400bd0 <.plt>

0000000000400c00 <srandom@plt>:
  400c00:	ff 25 22 44 20 00    	jmpq   *0x204422(%rip)        # 605028 <srandom@GLIBC_2.2.5>
  400c06:	68 02 00 00 00       	pushq  $0x2
  400c0b:	e9 c0 ff ff ff       	jmpq   400bd0 <.plt>

0000000000400c10 <strncmp@plt>:
  400c10:	ff 25 1a 44 20 00    	jmpq   *0x20441a(%rip)        # 605030 <strncmp@GLIBC_2.2.5>
  400c16:	68 03 00 00 00       	pushq  $0x3
  400c1b:	e9 b0 ff ff ff       	jmpq   400bd0 <.plt>

0000000000400c20 <strcpy@plt>:
  400c20:	ff 25 12 44 20 00    	jmpq   *0x204412(%rip)        # 605038 <strcpy@GLIBC_2.2.5>
  400c26:	68 04 00 00 00       	pushq  $0x4
  400c2b:	e9 a0 ff ff ff       	jmpq   400bd0 <.plt>

0000000000400c30 <puts@plt>:
  400c30:	ff 25 0a 44 20 00    	jmpq   *0x20440a(%rip)        # 605040 <puts@GLIBC_2.2.5>
  400c36:	68 05 00 00 00       	pushq  $0x5
  400c3b:	e9 90 ff ff ff       	jmpq   400bd0 <.plt>

0000000000400c40 <write@plt>:
  400c40:	ff 25 02 44 20 00    	jmpq   *0x204402(%rip)        # 605048 <write@GLIBC_2.2.5>
  400c46:	68 06 00 00 00       	pushq  $0x6
  400c4b:	e9 80 ff ff ff       	jmpq   400bd0 <.plt>

0000000000400c50 <mmap@plt>:
  400c50:	ff 25 fa 43 20 00    	jmpq   *0x2043fa(%rip)        # 605050 <mmap@GLIBC_2.2.5>
  400c56:	68 07 00 00 00       	pushq  $0x7
  400c5b:	e9 70 ff ff ff       	jmpq   400bd0 <.plt>

0000000000400c60 <printf@plt>:
  400c60:	ff 25 f2 43 20 00    	jmpq   *0x2043f2(%rip)        # 605058 <printf@GLIBC_2.2.5>
  400c66:	68 08 00 00 00       	pushq  $0x8
  400c6b:	e9 60 ff ff ff       	jmpq   400bd0 <.plt>

0000000000400c70 <memset@plt>:
  400c70:	ff 25 ea 43 20 00    	jmpq   *0x2043ea(%rip)        # 605060 <memset@GLIBC_2.2.5>
  400c76:	68 09 00 00 00       	pushq  $0x9
  400c7b:	e9 50 ff ff ff       	jmpq   400bd0 <.plt>

0000000000400c80 <alarm@plt>:
  400c80:	ff 25 e2 43 20 00    	jmpq   *0x2043e2(%rip)        # 605068 <alarm@GLIBC_2.2.5>
  400c86:	68 0a 00 00 00       	pushq  $0xa
  400c8b:	e9 40 ff ff ff       	jmpq   400bd0 <.plt>

0000000000400c90 <close@plt>:
  400c90:	ff 25 da 43 20 00    	jmpq   *0x2043da(%rip)        # 605070 <close@GLIBC_2.2.5>
  400c96:	68 0b 00 00 00       	pushq  $0xb
  400c9b:	e9 30 ff ff ff       	jmpq   400bd0 <.plt>

0000000000400ca0 <read@plt>:
  400ca0:	ff 25 d2 43 20 00    	jmpq   *0x2043d2(%rip)        # 605078 <read@GLIBC_2.2.5>
  400ca6:	68 0c 00 00 00       	pushq  $0xc
  400cab:	e9 20 ff ff ff       	jmpq   400bd0 <.plt>

0000000000400cb0 <signal@plt>:
  400cb0:	ff 25 ca 43 20 00    	jmpq   *0x2043ca(%rip)        # 605080 <signal@GLIBC_2.2.5>
  400cb6:	68 0d 00 00 00       	pushq  $0xd
  400cbb:	e9 10 ff ff ff       	jmpq   400bd0 <.plt>

0000000000400cc0 <gethostbyname@plt>:
  400cc0:	ff 25 c2 43 20 00    	jmpq   *0x2043c2(%rip)        # 605088 <gethostbyname@GLIBC_2.2.5>
  400cc6:	68 0e 00 00 00       	pushq  $0xe
  400ccb:	e9 00 ff ff ff       	jmpq   400bd0 <.plt>

0000000000400cd0 <fprintf@plt>:
  400cd0:	ff 25 ba 43 20 00    	jmpq   *0x2043ba(%rip)        # 605090 <fprintf@GLIBC_2.2.5>
  400cd6:	68 0f 00 00 00       	pushq  $0xf
  400cdb:	e9 f0 fe ff ff       	jmpq   400bd0 <.plt>

0000000000400ce0 <strtol@plt>:
  400ce0:	ff 25 b2 43 20 00    	jmpq   *0x2043b2(%rip)        # 605098 <strtol@GLIBC_2.2.5>
  400ce6:	68 10 00 00 00       	pushq  $0x10
  400ceb:	e9 e0 fe ff ff       	jmpq   400bd0 <.plt>

0000000000400cf0 <memcpy@plt>:
  400cf0:	ff 25 aa 43 20 00    	jmpq   *0x2043aa(%rip)        # 6050a0 <memcpy@GLIBC_2.14>
  400cf6:	68 11 00 00 00       	pushq  $0x11
  400cfb:	e9 d0 fe ff ff       	jmpq   400bd0 <.plt>

0000000000400d00 <time@plt>:
  400d00:	ff 25 a2 43 20 00    	jmpq   *0x2043a2(%rip)        # 6050a8 <time@GLIBC_2.2.5>
  400d06:	68 12 00 00 00       	pushq  $0x12
  400d0b:	e9 c0 fe ff ff       	jmpq   400bd0 <.plt>

0000000000400d10 <random@plt>:
  400d10:	ff 25 9a 43 20 00    	jmpq   *0x20439a(%rip)        # 6050b0 <random@GLIBC_2.2.5>
  400d16:	68 13 00 00 00       	pushq  $0x13
  400d1b:	e9 b0 fe ff ff       	jmpq   400bd0 <.plt>

0000000000400d20 <_IO_getc@plt>:
  400d20:	ff 25 92 43 20 00    	jmpq   *0x204392(%rip)        # 6050b8 <_IO_getc@GLIBC_2.2.5>
  400d26:	68 14 00 00 00       	pushq  $0x14
  400d2b:	e9 a0 fe ff ff       	jmpq   400bd0 <.plt>

0000000000400d30 <__isoc99_sscanf@plt>:
  400d30:	ff 25 8a 43 20 00    	jmpq   *0x20438a(%rip)        # 6050c0 <__isoc99_sscanf@GLIBC_2.7>
  400d36:	68 15 00 00 00       	pushq  $0x15
  400d3b:	e9 90 fe ff ff       	jmpq   400bd0 <.plt>

0000000000400d40 <munmap@plt>:
  400d40:	ff 25 82 43 20 00    	jmpq   *0x204382(%rip)        # 6050c8 <munmap@GLIBC_2.2.5>
  400d46:	68 16 00 00 00       	pushq  $0x16
  400d4b:	e9 80 fe ff ff       	jmpq   400bd0 <.plt>

0000000000400d50 <bcopy@plt>:
  400d50:	ff 25 7a 43 20 00    	jmpq   *0x20437a(%rip)        # 6050d0 <bcopy@GLIBC_2.2.5>
  400d56:	68 17 00 00 00       	pushq  $0x17
  400d5b:	e9 70 fe ff ff       	jmpq   400bd0 <.plt>

0000000000400d60 <fopen@plt>:
  400d60:	ff 25 72 43 20 00    	jmpq   *0x204372(%rip)        # 6050d8 <fopen@GLIBC_2.2.5>
  400d66:	68 18 00 00 00       	pushq  $0x18
  400d6b:	e9 60 fe ff ff       	jmpq   400bd0 <.plt>

0000000000400d70 <getopt@plt>:
  400d70:	ff 25 6a 43 20 00    	jmpq   *0x20436a(%rip)        # 6050e0 <getopt@GLIBC_2.2.5>
  400d76:	68 19 00 00 00       	pushq  $0x19
  400d7b:	e9 50 fe ff ff       	jmpq   400bd0 <.plt>

0000000000400d80 <strtoul@plt>:
  400d80:	ff 25 62 43 20 00    	jmpq   *0x204362(%rip)        # 6050e8 <strtoul@GLIBC_2.2.5>
  400d86:	68 1a 00 00 00       	pushq  $0x1a
  400d8b:	e9 40 fe ff ff       	jmpq   400bd0 <.plt>

0000000000400d90 <gethostname@plt>:
  400d90:	ff 25 5a 43 20 00    	jmpq   *0x20435a(%rip)        # 6050f0 <gethostname@GLIBC_2.2.5>
  400d96:	68 1b 00 00 00       	pushq  $0x1b
  400d9b:	e9 30 fe ff ff       	jmpq   400bd0 <.plt>

0000000000400da0 <sprintf@plt>:
  400da0:	ff 25 52 43 20 00    	jmpq   *0x204352(%rip)        # 6050f8 <sprintf@GLIBC_2.2.5>
  400da6:	68 1c 00 00 00       	pushq  $0x1c
  400dab:	e9 20 fe ff ff       	jmpq   400bd0 <.plt>

0000000000400db0 <exit@plt>:
  400db0:	ff 25 4a 43 20 00    	jmpq   *0x20434a(%rip)        # 605100 <exit@GLIBC_2.2.5>
  400db6:	68 1d 00 00 00       	pushq  $0x1d
  400dbb:	e9 10 fe ff ff       	jmpq   400bd0 <.plt>

0000000000400dc0 <connect@plt>:
  400dc0:	ff 25 42 43 20 00    	jmpq   *0x204342(%rip)        # 605108 <connect@GLIBC_2.2.5>
  400dc6:	68 1e 00 00 00       	pushq  $0x1e
  400dcb:	e9 00 fe ff ff       	jmpq   400bd0 <.plt>

0000000000400dd0 <socket@plt>:
  400dd0:	ff 25 3a 43 20 00    	jmpq   *0x20433a(%rip)        # 605110 <socket@GLIBC_2.2.5>
  400dd6:	68 1f 00 00 00       	pushq  $0x1f
  400ddb:	e9 f0 fd ff ff       	jmpq   400bd0 <.plt>

Disassembly of section .text:

0000000000400de0 <_start>:
  400de0:	31 ed                	xor    %ebp,%ebp
  400de2:	49 89 d1             	mov    %rdx,%r9
  400de5:	5e                   	pop    %rsi
  400de6:	48 89 e2             	mov    %rsp,%rdx
  400de9:	48 83 e4 f0          	and    $0xfffffffffffffff0,%rsp
  400ded:	50                   	push   %rax
  400dee:	54                   	push   %rsp
  400def:	49 c7 c0 c0 2c 40 00 	mov    $0x402cc0,%r8
  400df6:	48 c7 c1 60 2c 40 00 	mov    $0x402c60,%rcx
  400dfd:	48 c7 c7 70 10 40 00 	mov    $0x401070,%rdi
  400e04:	ff 15 e6 41 20 00    	callq  *0x2041e6(%rip)        # 604ff0 <__libc_start_main@GLIBC_2.2.5>
  400e0a:	f4                   	hlt    
  400e0b:	0f 1f 44 00 00       	nopl   0x0(%rax,%rax,1)

0000000000400e10 <deregister_tm_clones>:
  400e10:	55                   	push   %rbp
  400e11:	b8 70 59 60 00       	mov    $0x605970,%eax
  400e16:	48 3d 70 59 60 00    	cmp    $0x605970,%rax
  400e1c:	48 89 e5             	mov    %rsp,%rbp
  400e1f:	74 12                	je     400e33 <deregister_tm_clones+0x23>
  400e21:	b8 00 00 00 00       	mov    $0x0,%eax
  400e26:	48 85 c0             	test   %rax,%rax
  400e29:	74 08                	je     400e33 <deregister_tm_clones+0x23>
  400e2b:	5d                   	pop    %rbp
  400e2c:	bf 70 59 60 00       	mov    $0x605970,%edi
  400e31:	ff e0                	jmpq   *%rax
  400e33:	5d                   	pop    %rbp
  400e34:	c3                   	retq   
  400e35:	90                   	nop
  400e36:	66 2e 0f 1f 84 00 00 	nopw   %cs:0x0(%rax,%rax,1)
  400e3d:	00 00 00 

0000000000400e40 <register_tm_clones>:
  400e40:	be 70 59 60 00       	mov    $0x605970,%esi
  400e45:	55                   	push   %rbp
  400e46:	48 81 ee 70 59 60 00 	sub    $0x605970,%rsi
  400e4d:	48 89 e5             	mov    %rsp,%rbp
  400e50:	48 c1 fe 03          	sar    $0x3,%rsi
  400e54:	48 89 f0             	mov    %rsi,%rax
  400e57:	48 c1 e8 3f          	shr    $0x3f,%rax
  400e5b:	48 01 c6             	add    %rax,%rsi
  400e5e:	48 d1 fe             	sar    %rsi
  400e61:	74 12                	je     400e75 <register_tm_clones+0x35>
  400e63:	b8 00 00 00 00       	mov    $0x0,%eax
  400e68:	48 85 c0             	test   %rax,%rax
  400e6b:	74 08                	je     400e75 <register_tm_clones+0x35>
  400e6d:	5d                   	pop    %rbp
  400e6e:	bf 70 59 60 00       	mov    $0x605970,%edi
  400e73:	ff e0                	jmpq   *%rax
  400e75:	5d                   	pop    %rbp
  400e76:	c3                   	retq   
  400e77:	66 0f 1f 84 00 00 00 	nopw   0x0(%rax,%rax,1)
  400e7e:	00 00 

0000000000400e80 <__do_global_dtors_aux>:
  400e80:	80 3d 21 4b 20 00 00 	cmpb   $0x0,0x204b21(%rip)        # 6059a8 <completed.6984>
  400e87:	75 12                	jne    400e9b <__do_global_dtors_aux+0x1b>
  400e89:	55                   	push   %rbp
  400e8a:	48 89 e5             	mov    %rsp,%rbp
  400e8d:	e8 7e ff ff ff       	callq  400e10 <deregister_tm_clones>
  400e92:	c6 05 0f 4b 20 00 01 	movb   $0x1,0x204b0f(%rip)        # 6059a8 <completed.6984>
  400e99:	5d                   	pop    %rbp
  400e9a:	c3                   	retq   
  400e9b:	f3 c3                	repz retq 
  400e9d:	0f 1f 00             	nopl   (%rax)

0000000000400ea0 <frame_dummy>:
  400ea0:	55                   	push   %rbp
  400ea1:	48 89 e5             	mov    %rsp,%rbp
  400ea4:	5d                   	pop    %rbp
  400ea5:	eb 99                	jmp    400e40 <register_tm_clones>

0000000000400ea7 <usage>:
  400ea7:	48 83 ec 08          	sub    $0x8,%rsp
  400eab:	48 89 fe             	mov    %rdi,%rsi
  400eae:	83 3d 33 4b 20 00 00 	cmpl   $0x0,0x204b33(%rip)        # 6059e8 <is_checker>
  400eb5:	74 41                	je     400ef8 <usage+0x51>
  400eb7:	bf e0 2c 40 00       	mov    $0x402ce0,%edi
  400ebc:	b8 00 00 00 00       	mov    $0x0,%eax
  400ec1:	e8 9a fd ff ff       	callq  400c60 <printf@plt>
  400ec6:	bf 18 2d 40 00       	mov    $0x402d18,%edi
  400ecb:	e8 60 fd ff ff       	callq  400c30 <puts@plt>
  400ed0:	bf 90 2e 40 00       	mov    $0x402e90,%edi
  400ed5:	e8 56 fd ff ff       	callq  400c30 <puts@plt>
  400eda:	bf 40 2d 40 00       	mov    $0x402d40,%edi
  400edf:	e8 4c fd ff ff       	callq  400c30 <puts@plt>
  400ee4:	bf aa 2e 40 00       	mov    $0x402eaa,%edi
  400ee9:	e8 42 fd ff ff       	callq  400c30 <puts@plt>
  400eee:	bf 00 00 00 00       	mov    $0x0,%edi
  400ef3:	e8 b8 fe ff ff       	callq  400db0 <exit@plt>
  400ef8:	bf c6 2e 40 00       	mov    $0x402ec6,%edi
  400efd:	b8 00 00 00 00       	mov    $0x0,%eax
  400f02:	e8 59 fd ff ff       	callq  400c60 <printf@plt>
  400f07:	bf 68 2d 40 00       	mov    $0x402d68,%edi
  400f0c:	e8 1f fd ff ff       	callq  400c30 <puts@plt>
  400f11:	bf 90 2d 40 00       	mov    $0x402d90,%edi
  400f16:	e8 15 fd ff ff       	callq  400c30 <puts@plt>
  400f1b:	bf e4 2e 40 00       	mov    $0x402ee4,%edi
  400f20:	e8 0b fd ff ff       	callq  400c30 <puts@plt>
  400f25:	eb c7                	jmp    400eee <usage+0x47>

0000000000400f27 <initialize_target>:
  400f27:	55                   	push   %rbp
  400f28:	53                   	push   %rbx
  400f29:	48 81 ec 08 21 00 00 	sub    $0x2108,%rsp
  400f30:	89 f5                	mov    %esi,%ebp
  400f32:	89 3d a0 4a 20 00    	mov    %edi,0x204aa0(%rip)        # 6059d8 <check_level>
  400f38:	8b 3d 0a 42 20 00    	mov    0x20420a(%rip),%edi        # 605148 <target_id>
  400f3e:	e8 fb 1c 00 00       	callq  402c3e <gencookie>
  400f43:	89 05 9b 4a 20 00    	mov    %eax,0x204a9b(%rip)        # 6059e4 <cookie>
  400f49:	89 c7                	mov    %eax,%edi
  400f4b:	e8 ee 1c 00 00       	callq  402c3e <gencookie>
  400f50:	89 05 8a 4a 20 00    	mov    %eax,0x204a8a(%rip)        # 6059e0 <authkey>
  400f56:	8b 05 ec 41 20 00    	mov    0x2041ec(%rip),%eax        # 605148 <target_id>
  400f5c:	8d 78 01             	lea    0x1(%rax),%edi
  400f5f:	e8 9c fc ff ff       	callq  400c00 <srandom@plt>
  400f64:	e8 a7 fd ff ff       	callq  400d10 <random@plt>
  400f69:	89 c7                	mov    %eax,%edi
  400f6b:	e8 b8 02 00 00       	callq  401228 <scramble>
  400f70:	89 c3                	mov    %eax,%ebx
  400f72:	85 ed                	test   %ebp,%ebp
  400f74:	75 3d                	jne    400fb3 <initialize_target+0x8c>
  400f76:	b8 00 00 00 00       	mov    $0x0,%eax
  400f7b:	01 d8                	add    %ebx,%eax
  400f7d:	0f b7 c0             	movzwl %ax,%eax
  400f80:	8d 04 c5 00 01 00 00 	lea    0x100(,%rax,8),%eax
  400f87:	89 c0                	mov    %eax,%eax
  400f89:	48 89 05 d0 49 20 00 	mov    %rax,0x2049d0(%rip)        # 605960 <buf_offset>
  400f90:	c6 05 71 56 20 00 72 	movb   $0x72,0x205671(%rip)        # 606608 <target_prefix>
  400f97:	83 3d ca 49 20 00 00 	cmpl   $0x0,0x2049ca(%rip)        # 605968 <notify>
  400f9e:	74 09                	je     400fa9 <initialize_target+0x82>
  400fa0:	83 3d 41 4a 20 00 00 	cmpl   $0x0,0x204a41(%rip)        # 6059e8 <is_checker>
  400fa7:	74 22                	je     400fcb <initialize_target+0xa4>
  400fa9:	48 81 c4 08 21 00 00 	add    $0x2108,%rsp
  400fb0:	5b                   	pop    %rbx
  400fb1:	5d                   	pop    %rbp
  400fb2:	c3                   	retq   
  400fb3:	bf 00 00 00 00       	mov    $0x0,%edi
  400fb8:	e8 43 fd ff ff       	callq  400d00 <time@plt>
  400fbd:	89 c7                	mov    %eax,%edi
  400fbf:	e8 3c fc ff ff       	callq  400c00 <srandom@plt>
  400fc4:	e8 47 fd ff ff       	callq  400d10 <random@plt>
  400fc9:	eb b0                	jmp    400f7b <initialize_target+0x54>
  400fcb:	be 00 01 00 00       	mov    $0x100,%esi
  400fd0:	48 89 e7             	mov    %rsp,%rdi
  400fd3:	e8 b8 fd ff ff       	callq  400d90 <gethostname@plt>
  400fd8:	89 c5                	mov    %eax,%ebp
  400fda:	85 c0                	test   %eax,%eax
  400fdc:	75 23                	jne    401001 <initialize_target+0xda>
  400fde:	89 c3                	mov    %eax,%ebx
  400fe0:	48 63 c3             	movslq %ebx,%rax
  400fe3:	48 8b 3c c5 60 51 60 	mov    0x605160(,%rax,8),%rdi
  400fea:	00 
  400feb:	48 85 ff             	test   %rdi,%rdi
  400fee:	74 2a                	je     40101a <initialize_target+0xf3>
  400ff0:	48 89 e6             	mov    %rsp,%rsi
  400ff3:	e8 e8 fb ff ff       	callq  400be0 <strcasecmp@plt>
  400ff8:	85 c0                	test   %eax,%eax
  400ffa:	74 19                	je     401015 <initialize_target+0xee>
  400ffc:	83 c3 01             	add    $0x1,%ebx
  400fff:	eb df                	jmp    400fe0 <initialize_target+0xb9>
  401001:	bf c0 2d 40 00       	mov    $0x402dc0,%edi
  401006:	e8 25 fc ff ff       	callq  400c30 <puts@plt>
  40100b:	bf 08 00 00 00       	mov    $0x8,%edi
  401010:	e8 9b fd ff ff       	callq  400db0 <exit@plt>
  401015:	bd 01 00 00 00       	mov    $0x1,%ebp
  40101a:	85 ed                	test   %ebp,%ebp
  40101c:	74 36                	je     401054 <initialize_target+0x12d>
  40101e:	48 8d bc 24 00 01 00 	lea    0x100(%rsp),%rdi
  401025:	00 
  401026:	e8 a6 19 00 00       	callq  4029d1 <init_driver>
  40102b:	85 c0                	test   %eax,%eax
  40102d:	0f 89 76 ff ff ff    	jns    400fa9 <initialize_target+0x82>
  401033:	48 8d b4 24 00 01 00 	lea    0x100(%rsp),%rsi
  40103a:	00 
  40103b:	bf 38 2e 40 00       	mov    $0x402e38,%edi
  401040:	b8 00 00 00 00       	mov    $0x0,%eax
  401045:	e8 16 fc ff ff       	callq  400c60 <printf@plt>
  40104a:	bf 08 00 00 00       	mov    $0x8,%edi
  40104f:	e8 5c fd ff ff       	callq  400db0 <exit@plt>
  401054:	48 89 e6             	mov    %rsp,%rsi
  401057:	bf f8 2d 40 00       	mov    $0x402df8,%edi
  40105c:	b8 00 00 00 00       	mov    $0x0,%eax
  401061:	e8 fa fb ff ff       	callq  400c60 <printf@plt>
  401066:	bf 08 00 00 00       	mov    $0x8,%edi
  40106b:	e8 40 fd ff ff       	callq  400db0 <exit@plt>

0000000000401070 <main>:
  401070:	41 56                	push   %r14
  401072:	41 55                	push   %r13
  401074:	41 54                	push   %r12
  401076:	55                   	push   %rbp
  401077:	53                   	push   %rbx
  401078:	41 89 fc             	mov    %edi,%r12d
  40107b:	48 89 f3             	mov    %rsi,%rbx
  40107e:	be d9 1d 40 00       	mov    $0x401dd9,%esi
  401083:	bf 0b 00 00 00       	mov    $0xb,%edi
  401088:	e8 23 fc ff ff       	callq  400cb0 <signal@plt>
  40108d:	be 8b 1d 40 00       	mov    $0x401d8b,%esi
  401092:	bf 07 00 00 00       	mov    $0x7,%edi
  401097:	e8 14 fc ff ff       	callq  400cb0 <signal@plt>
  40109c:	be 27 1e 40 00       	mov    $0x401e27,%esi
  4010a1:	bf 04 00 00 00       	mov    $0x4,%edi
  4010a6:	e8 05 fc ff ff       	callq  400cb0 <signal@plt>
  4010ab:	83 3d 36 49 20 00 00 	cmpl   $0x0,0x204936(%rip)        # 6059e8 <is_checker>
  4010b2:	75 24                	jne    4010d8 <main+0x68>
  4010b4:	bd fd 2e 40 00       	mov    $0x402efd,%ebp
  4010b9:	48 8b 05 c0 48 20 00 	mov    0x2048c0(%rip),%rax        # 605980 <stdin@@GLIBC_2.2.5>
  4010c0:	48 89 05 09 49 20 00 	mov    %rax,0x204909(%rip)        # 6059d0 <infile>
  4010c7:	41 bd 00 00 00 00    	mov    $0x0,%r13d
  4010cd:	41 be 00 00 00 00    	mov    $0x0,%r14d
  4010d3:	e9 80 00 00 00       	jmpq   401158 <main+0xe8>
  4010d8:	be 75 1e 40 00       	mov    $0x401e75,%esi
  4010dd:	bf 0e 00 00 00       	mov    $0xe,%edi
  4010e2:	e8 c9 fb ff ff       	callq  400cb0 <signal@plt>
  4010e7:	bf 05 00 00 00       	mov    $0x5,%edi
  4010ec:	e8 8f fb ff ff       	callq  400c80 <alarm@plt>
  4010f1:	bd 02 2f 40 00       	mov    $0x402f02,%ebp
  4010f6:	eb c1                	jmp    4010b9 <main+0x49>
  4010f8:	48 8b 3b             	mov    (%rbx),%rdi
  4010fb:	e8 a7 fd ff ff       	callq  400ea7 <usage>
  401100:	be df 35 40 00       	mov    $0x4035df,%esi
  401105:	48 8b 3d 84 48 20 00 	mov    0x204884(%rip),%rdi        # 605990 <optarg@@GLIBC_2.2.5>
  40110c:	e8 4f fc ff ff       	callq  400d60 <fopen@plt>
  401111:	48 89 05 b8 48 20 00 	mov    %rax,0x2048b8(%rip)        # 6059d0 <infile>
  401118:	48 85 c0             	test   %rax,%rax
  40111b:	75 3b                	jne    401158 <main+0xe8>
  40111d:	48 8b 15 6c 48 20 00 	mov    0x20486c(%rip),%rdx        # 605990 <optarg@@GLIBC_2.2.5>
  401124:	be 0a 2f 40 00       	mov    $0x402f0a,%esi
  401129:	48 8b 3d 70 48 20 00 	mov    0x204870(%rip),%rdi        # 6059a0 <stderr@@GLIBC_2.2.5>
  401130:	e8 9b fb ff ff       	callq  400cd0 <fprintf@plt>
  401135:	b8 01 00 00 00       	mov    $0x1,%eax
  40113a:	e9 c2 00 00 00       	jmpq   401201 <main+0x191>
  40113f:	ba 10 00 00 00       	mov    $0x10,%edx
  401144:	be 00 00 00 00       	mov    $0x0,%esi
  401149:	48 8b 3d 40 48 20 00 	mov    0x204840(%rip),%rdi        # 605990 <optarg@@GLIBC_2.2.5>
  401150:	e8 2b fc ff ff       	callq  400d80 <strtoul@plt>
  401155:	41 89 c6             	mov    %eax,%r14d
  401158:	48 89 ea             	mov    %rbp,%rdx
  40115b:	48 89 de             	mov    %rbx,%rsi
  40115e:	44 89 e7             	mov    %r12d,%edi
  401161:	e8 0a fc ff ff       	callq  400d70 <getopt@plt>
  401166:	3c ff                	cmp    $0xff,%al
  401168:	74 52                	je     4011bc <main+0x14c>
  40116a:	0f be f0             	movsbl %al,%esi
  40116d:	83 e8 61             	sub    $0x61,%eax
  401170:	3c 10                	cmp    $0x10,%al
  401172:	77 31                	ja     4011a5 <main+0x135>
  401174:	0f b6 c0             	movzbl %al,%eax
  401177:	ff 24 c5 48 2f 40 00 	jmpq   *0x402f48(,%rax,8)
  40117e:	ba 0a 00 00 00       	mov    $0xa,%edx
  401183:	be 00 00 00 00       	mov    $0x0,%esi
  401188:	48 8b 3d 01 48 20 00 	mov    0x204801(%rip),%rdi        # 605990 <optarg@@GLIBC_2.2.5>
  40118f:	e8 4c fb ff ff       	callq  400ce0 <strtol@plt>
  401194:	41 89 c5             	mov    %eax,%r13d
  401197:	eb bf                	jmp    401158 <main+0xe8>
  401199:	c7 05 c5 47 20 00 00 	movl   $0x0,0x2047c5(%rip)        # 605968 <notify>
  4011a0:	00 00 00 
  4011a3:	eb b3                	jmp    401158 <main+0xe8>
  4011a5:	bf 27 2f 40 00       	mov    $0x402f27,%edi
  4011aa:	b8 00 00 00 00       	mov    $0x0,%eax
  4011af:	e8 ac fa ff ff       	callq  400c60 <printf@plt>
  4011b4:	48 8b 3b             	mov    (%rbx),%rdi
  4011b7:	e8 eb fc ff ff       	callq  400ea7 <usage>
  4011bc:	be 01 00 00 00       	mov    $0x1,%esi
  4011c1:	44 89 ef             	mov    %r13d,%edi
  4011c4:	e8 5e fd ff ff       	callq  400f27 <initialize_target>
  4011c9:	83 3d 18 48 20 00 00 	cmpl   $0x0,0x204818(%rip)        # 6059e8 <is_checker>
  4011d0:	74 09                	je     4011db <main+0x16b>
  4011d2:	44 39 35 07 48 20 00 	cmp    %r14d,0x204807(%rip)        # 6059e0 <authkey>
  4011d9:	75 2f                	jne    40120a <main+0x19a>
  4011db:	8b 35 03 48 20 00    	mov    0x204803(%rip),%esi        # 6059e4 <cookie>
  4011e1:	bf 3a 2f 40 00       	mov    $0x402f3a,%edi
  4011e6:	b8 00 00 00 00       	mov    $0x0,%eax
  4011eb:	e8 70 fa ff ff       	callq  400c60 <printf@plt>
  4011f0:	48 8b 3d 69 47 20 00 	mov    0x204769(%rip),%rdi        # 605960 <buf_offset>
  4011f7:	e8 c7 0c 00 00       	callq  401ec3 <launch>
  4011fc:	b8 00 00 00 00       	mov    $0x0,%eax
  401201:	5b                   	pop    %rbx
  401202:	5d                   	pop    %rbp
  401203:	41 5c                	pop    %r12
  401205:	41 5d                	pop    %r13
  401207:	41 5e                	pop    %r14
  401209:	c3                   	retq   
  40120a:	44 89 f6             	mov    %r14d,%esi
  40120d:	bf 60 2e 40 00       	mov    $0x402e60,%edi
  401212:	b8 00 00 00 00       	mov    $0x0,%eax
  401217:	e8 44 fa ff ff       	callq  400c60 <printf@plt>
  40121c:	b8 00 00 00 00       	mov    $0x0,%eax
  401221:	e8 61 08 00 00       	callq  401a87 <check_fail>
  401226:	eb b3                	jmp    4011db <main+0x16b>

0000000000401228 <scramble>:
  401228:	b8 00 00 00 00       	mov    $0x0,%eax
  40122d:	eb 11                	jmp    401240 <scramble+0x18>
  40122f:	69 d0 85 06 00 00    	imul   $0x685,%eax,%edx
  401235:	01 fa                	add    %edi,%edx
  401237:	89 c1                	mov    %eax,%ecx
  401239:	89 54 8c d0          	mov    %edx,-0x30(%rsp,%rcx,4)
  40123d:	83 c0 01             	add    $0x1,%eax
  401240:	83 f8 09             	cmp    $0x9,%eax
  401243:	76 ea                	jbe    40122f <scramble+0x7>
  401245:	8b 44 24 e0          	mov    -0x20(%rsp),%eax
  401249:	69 c0 77 06 00 00    	imul   $0x677,%eax,%eax
  40124f:	89 44 24 e0          	mov    %eax,-0x20(%rsp)
  401253:	8b 44 24 dc          	mov    -0x24(%rsp),%eax
  401257:	69 c0 40 fe 00 00    	imul   $0xfe40,%eax,%eax
  40125d:	89 44 24 dc          	mov    %eax,-0x24(%rsp)
  401261:	8b 44 24 d0          	mov    -0x30(%rsp),%eax
  401265:	69 c0 51 bc 00 00    	imul   $0xbc51,%eax,%eax
  40126b:	89 44 24 d0          	mov    %eax,-0x30(%rsp)
  40126f:	8b 44 24 d4          	mov    -0x2c(%rsp),%eax
  401273:	69 c0 b5 5b 00 00    	imul   $0x5bb5,%eax,%eax
  401279:	89 44 24 d4          	mov    %eax,-0x2c(%rsp)
  40127d:	8b 44 24 f0          	mov    -0x10(%rsp),%eax
  401281:	69 c0 54 1c 00 00    	imul   $0x1c54,%eax,%eax
  401287:	89 44 24 f0          	mov    %eax,-0x10(%rsp)
  40128b:	8b 44 24 ec          	mov    -0x14(%rsp),%eax
  40128f:	69 c0 fd 1d 00 00    	imul   $0x1dfd,%eax,%eax
  401295:	89 44 24 ec          	mov    %eax,-0x14(%rsp)
  401299:	8b 44 24 d4          	mov    -0x2c(%rsp),%eax
  40129d:	69 c0 b2 f3 00 00    	imul   $0xf3b2,%eax,%eax
  4012a3:	89 44 24 d4          	mov    %eax,-0x2c(%rsp)
  4012a7:	8b 44 24 f0          	mov    -0x10(%rsp),%eax
  4012ab:	69 c0 44 30 00 00    	imul   $0x3044,%eax,%eax
  4012b1:	89 44 24 f0          	mov    %eax,-0x10(%rsp)
  4012b5:	8b 44 24 dc          	mov    -0x24(%rsp),%eax
  4012b9:	69 c0 56 65 00 00    	imul   $0x6556,%eax,%eax
  4012bf:	89 44 24 dc          	mov    %eax,-0x24(%rsp)
  4012c3:	8b 44 24 d4          	mov    -0x2c(%rsp),%eax
  4012c7:	69 c0 ce e6 00 00    	imul   $0xe6ce,%eax,%eax
  4012cd:	89 44 24 d4          	mov    %eax,-0x2c(%rsp)
  4012d1:	8b 44 24 e4          	mov    -0x1c(%rsp),%eax
  4012d5:	69 c0 54 65 00 00    	imul   $0x6554,%eax,%eax
  4012db:	89 44 24 e4          	mov    %eax,-0x1c(%rsp)
  4012df:	8b 44 24 dc          	mov    -0x24(%rsp),%eax
  4012e3:	69 c0 d2 ac 00 00    	imul   $0xacd2,%eax,%eax
  4012e9:	89 44 24 dc          	mov    %eax,-0x24(%rsp)
  4012ed:	8b 44 24 ec          	mov    -0x14(%rsp),%eax
  4012f1:	69 c0 4b 3b 00 00    	imul   $0x3b4b,%eax,%eax
  4012f7:	89 44 24 ec          	mov    %eax,-0x14(%rsp)
  4012fb:	8b 44 24 e0          	mov    -0x20(%rsp),%eax
  4012ff:	69 c0 43 fa 00 00    	imul   $0xfa43,%eax,%eax
  401305:	89 44 24 e0          	mov    %eax,-0x20(%rsp)
  401309:	8b 44 24 f0          	mov    -0x10(%rsp),%eax
  40130d:	69 c0 3e 50 00 00    	imul   $0x503e,%eax,%eax
  401313:	89 44 24 f0          	mov    %eax,-0x10(%rsp)
  401317:	8b 44 24 e4          	mov    -0x1c(%rsp),%eax
  40131b:	69 c0 61 9c 00 00    	imul   $0x9c61,%eax,%eax
  401321:	89 44 24 e4          	mov    %eax,-0x1c(%rsp)
  401325:	8b 44 24 dc          	mov    -0x24(%rsp),%eax
  401329:	69 c0 f8 58 00 00    	imul   $0x58f8,%eax,%eax
  40132f:	89 44 24 dc          	mov    %eax,-0x24(%rsp)
  401333:	8b 44 24 d8          	mov    -0x28(%rsp),%eax
  401337:	69 c0 6c 11 00 00    	imul   $0x116c,%eax,%eax
  40133d:	89 44 24 d8          	mov    %eax,-0x28(%rsp)
  401341:	8b 44 24 d4          	mov    -0x2c(%rsp),%eax
  401345:	69 c0 f8 b7 00 00    	imul   $0xb7f8,%eax,%eax
  40134b:	89 44 24 d4          	mov    %eax,-0x2c(%rsp)
  40134f:	8b 44 24 e8          	mov    -0x18(%rsp),%eax
  401353:	69 c0 2d e3 00 00    	imul   $0xe32d,%eax,%eax
  401359:	89 44 24 e8          	mov    %eax,-0x18(%rsp)
  40135d:	8b 44 24 d8          	mov    -0x28(%rsp),%eax
  401361:	69 c0 55 0a 00 00    	imul   $0xa55,%eax,%eax
  401367:	89 44 24 d8          	mov    %eax,-0x28(%rsp)
  40136b:	8b 44 24 d4          	mov    -0x2c(%rsp),%eax
  40136f:	69 c0 60 3e 00 00    	imul   $0x3e60,%eax,%eax
  401375:	89 44 24 d4          	mov    %eax,-0x2c(%rsp)
  401379:	8b 44 24 e8          	mov    -0x18(%rsp),%eax
  40137d:	69 c0 d8 c4 00 00    	imul   $0xc4d8,%eax,%eax
  401383:	89 44 24 e8          	mov    %eax,-0x18(%rsp)
  401387:	8b 44 24 e0          	mov    -0x20(%rsp),%eax
  40138b:	69 c0 ca 6a 00 00    	imul   $0x6aca,%eax,%eax
  401391:	89 44 24 e0          	mov    %eax,-0x20(%rsp)
  401395:	8b 44 24 e8          	mov    -0x18(%rsp),%eax
  401399:	69 c0 3b 29 00 00    	imul   $0x293b,%eax,%eax
  40139f:	89 44 24 e8          	mov    %eax,-0x18(%rsp)
  4013a3:	8b 44 24 dc          	mov    -0x24(%rsp),%eax
  4013a7:	69 c0 9b 2f 00 00    	imul   $0x2f9b,%eax,%eax
  4013ad:	89 44 24 dc          	mov    %eax,-0x24(%rsp)
  4013b1:	8b 44 24 dc          	mov    -0x24(%rsp),%eax
  4013b5:	69 c0 98 2b 00 00    	imul   $0x2b98,%eax,%eax
  4013bb:	89 44 24 dc          	mov    %eax,-0x24(%rsp)
  4013bf:	8b 44 24 ec          	mov    -0x14(%rsp),%eax
  4013c3:	69 c0 9c f8 00 00    	imul   $0xf89c,%eax,%eax
  4013c9:	89 44 24 ec          	mov    %eax,-0x14(%rsp)
  4013cd:	8b 44 24 e8          	mov    -0x18(%rsp),%eax
  4013d1:	69 c0 7e 4c 00 00    	imul   $0x4c7e,%eax,%eax
  4013d7:	89 44 24 e8          	mov    %eax,-0x18(%rsp)
  4013db:	8b 44 24 f0          	mov    -0x10(%rsp),%eax
  4013df:	69 c0 bf fc 00 00    	imul   $0xfcbf,%eax,%eax
  4013e5:	89 44 24 f0          	mov    %eax,-0x10(%rsp)
  4013e9:	8b 44 24 f4          	mov    -0xc(%rsp),%eax
  4013ed:	69 c0 dc 6f 00 00    	imul   $0x6fdc,%eax,%eax
  4013f3:	89 44 24 f4          	mov    %eax,-0xc(%rsp)
  4013f7:	8b 44 24 d8          	mov    -0x28(%rsp),%eax
  4013fb:	69 c0 71 f3 00 00    	imul   $0xf371,%eax,%eax
  401401:	89 44 24 d8          	mov    %eax,-0x28(%rsp)
  401405:	8b 44 24 dc          	mov    -0x24(%rsp),%eax
  401409:	69 c0 c2 33 00 00    	imul   $0x33c2,%eax,%eax
  40140f:	89 44 24 dc          	mov    %eax,-0x24(%rsp)
  401413:	8b 44 24 d0          	mov    -0x30(%rsp),%eax
  401417:	69 c0 1e de 00 00    	imul   $0xde1e,%eax,%eax
  40141d:	89 44 24 d0          	mov    %eax,-0x30(%rsp)
  401421:	8b 44 24 ec          	mov    -0x14(%rsp),%eax
  401425:	69 c0 fe 71 00 00    	imul   $0x71fe,%eax,%eax
  40142b:	89 44 24 ec          	mov    %eax,-0x14(%rsp)
  40142f:	8b 44 24 e4          	mov    -0x1c(%rsp),%eax
  401433:	69 c0 07 c0 00 00    	imul   $0xc007,%eax,%eax
  401439:	89 44 24 e4          	mov    %eax,-0x1c(%rsp)
  40143d:	8b 44 24 e4          	mov    -0x1c(%rsp),%eax
  401441:	69 c0 76 c2 00 00    	imul   $0xc276,%eax,%eax
  401447:	89 44 24 e4          	mov    %eax,-0x1c(%rsp)
  40144b:	8b 44 24 e8          	mov    -0x18(%rsp),%eax
  40144f:	69 c0 5b 7a 00 00    	imul   $0x7a5b,%eax,%eax
  401455:	89 44 24 e8          	mov    %eax,-0x18(%rsp)
  401459:	8b 44 24 f4          	mov    -0xc(%rsp),%eax
  40145d:	69 c0 0b 6d 00 00    	imul   $0x6d0b,%eax,%eax
  401463:	89 44 24 f4          	mov    %eax,-0xc(%rsp)
  401467:	8b 44 24 e0          	mov    -0x20(%rsp),%eax
  40146b:	69 c0 7c b1 00 00    	imul   $0xb17c,%eax,%eax
  401471:	89 44 24 e0          	mov    %eax,-0x20(%rsp)
  401475:	8b 44 24 f4          	mov    -0xc(%rsp),%eax
  401479:	69 c0 bd 36 00 00    	imul   $0x36bd,%eax,%eax
  40147f:	89 44 24 f4          	mov    %eax,-0xc(%rsp)
  401483:	8b 44 24 d4          	mov    -0x2c(%rsp),%eax
  401487:	69 c0 d6 24 00 00    	imul   $0x24d6,%eax,%eax
  40148d:	89 44 24 d4          	mov    %eax,-0x2c(%rsp)
  401491:	8b 44 24 f0          	mov    -0x10(%rsp),%eax
  401495:	69 c0 84 bd 00 00    	imul   $0xbd84,%eax,%eax
  40149b:	89 44 24 f0          	mov    %eax,-0x10(%rsp)
  40149f:	8b 44 24 e4          	mov    -0x1c(%rsp),%eax
  4014a3:	69 c0 38 c9 00 00    	imul   $0xc938,%eax,%eax
  4014a9:	89 44 24 e4          	mov    %eax,-0x1c(%rsp)
  4014ad:	8b 44 24 d8          	mov    -0x28(%rsp),%eax
  4014b1:	69 c0 52 10 00 00    	imul   $0x1052,%eax,%eax
  4014b7:	89 44 24 d8          	mov    %eax,-0x28(%rsp)
  4014bb:	8b 44 24 d8          	mov    -0x28(%rsp),%eax
  4014bf:	69 c0 bf a6 00 00    	imul   $0xa6bf,%eax,%eax
  4014c5:	89 44 24 d8          	mov    %eax,-0x28(%rsp)
  4014c9:	8b 44 24 f4          	mov    -0xc(%rsp),%eax
  4014cd:	69 c0 19 5f 00 00    	imul   $0x5f19,%eax,%eax
  4014d3:	89 44 24 f4          	mov    %eax,-0xc(%rsp)
  4014d7:	8b 44 24 ec          	mov    -0x14(%rsp),%eax
  4014db:	69 c0 03 49 00 00    	imul   $0x4903,%eax,%eax
  4014e1:	89 44 24 ec          	mov    %eax,-0x14(%rsp)
  4014e5:	8b 44 24 d4          	mov    -0x2c(%rsp),%eax
  4014e9:	69 c0 0e 9f 00 00    	imul   $0x9f0e,%eax,%eax
  4014ef:	89 44 24 d4          	mov    %eax,-0x2c(%rsp)
  4014f3:	8b 44 24 dc          	mov    -0x24(%rsp),%eax
  4014f7:	69 c0 96 7e 00 00    	imul   $0x7e96,%eax,%eax
  4014fd:	89 44 24 dc          	mov    %eax,-0x24(%rsp)
  401501:	8b 44 24 f4          	mov    -0xc(%rsp),%eax
  401505:	69 c0 6d e8 00 00    	imul   $0xe86d,%eax,%eax
  40150b:	89 44 24 f4          	mov    %eax,-0xc(%rsp)
  40150f:	8b 44 24 dc          	mov    -0x24(%rsp),%eax
  401513:	69 c0 60 8d 00 00    	imul   $0x8d60,%eax,%eax
  401519:	89 44 24 dc          	mov    %eax,-0x24(%rsp)
  40151d:	8b 44 24 ec          	mov    -0x14(%rsp),%eax
  401521:	69 c0 04 3d 00 00    	imul   $0x3d04,%eax,%eax
  401527:	89 44 24 ec          	mov    %eax,-0x14(%rsp)
  40152b:	8b 44 24 d4          	mov    -0x2c(%rsp),%eax
  40152f:	69 c0 31 32 00 00    	imul   $0x3231,%eax,%eax
  401535:	89 44 24 d4          	mov    %eax,-0x2c(%rsp)
  401539:	8b 44 24 d4          	mov    -0x2c(%rsp),%eax
  40153d:	69 c0 e0 ec 00 00    	imul   $0xece0,%eax,%eax
  401543:	89 44 24 d4          	mov    %eax,-0x2c(%rsp)
  401547:	8b 44 24 e8          	mov    -0x18(%rsp),%eax
  40154b:	69 c0 55 40 00 00    	imul   $0x4055,%eax,%eax
  401551:	89 44 24 e8          	mov    %eax,-0x18(%rsp)
  401555:	8b 44 24 e4          	mov    -0x1c(%rsp),%eax
  401559:	69 c0 c4 c4 00 00    	imul   $0xc4c4,%eax,%eax
  40155f:	89 44 24 e4          	mov    %eax,-0x1c(%rsp)
  401563:	8b 44 24 d8          	mov    -0x28(%rsp),%eax
  401567:	69 c0 f3 85 00 00    	imul   $0x85f3,%eax,%eax
  40156d:	89 44 24 d8          	mov    %eax,-0x28(%rsp)
  401571:	8b 44 24 f0          	mov    -0x10(%rsp),%eax
  401575:	69 c0 9e 82 00 00    	imul   $0x829e,%eax,%eax
  40157b:	89 44 24 f0          	mov    %eax,-0x10(%rsp)
  40157f:	8b 44 24 d8          	mov    -0x28(%rsp),%eax
  401583:	69 c0 4b 8c 00 00    	imul   $0x8c4b,%eax,%eax
  401589:	89 44 24 d8          	mov    %eax,-0x28(%rsp)
  40158d:	8b 44 24 e4          	mov    -0x1c(%rsp),%eax
  401591:	69 c0 24 15 00 00    	imul   $0x1524,%eax,%eax
  401597:	89 44 24 e4          	mov    %eax,-0x1c(%rsp)
  40159b:	8b 44 24 e4          	mov    -0x1c(%rsp),%eax
  40159f:	69 c0 1f 13 00 00    	imul   $0x131f,%eax,%eax
  4015a5:	89 44 24 e4          	mov    %eax,-0x1c(%rsp)
  4015a9:	8b 44 24 e0          	mov    -0x20(%rsp),%eax
  4015ad:	69 c0 3c cd 00 00    	imul   $0xcd3c,%eax,%eax
  4015b3:	89 44 24 e0          	mov    %eax,-0x20(%rsp)
  4015b7:	8b 44 24 d0          	mov    -0x30(%rsp),%eax
  4015bb:	69 c0 18 07 00 00    	imul   $0x718,%eax,%eax
  4015c1:	89 44 24 d0          	mov    %eax,-0x30(%rsp)
  4015c5:	8b 44 24 d8          	mov    -0x28(%rsp),%eax
  4015c9:	69 c0 43 83 00 00    	imul   $0x8343,%eax,%eax
  4015cf:	89 44 24 d8          	mov    %eax,-0x28(%rsp)
  4015d3:	8b 44 24 f0          	mov    -0x10(%rsp),%eax
  4015d7:	69 c0 57 7d 00 00    	imul   $0x7d57,%eax,%eax
  4015dd:	89 44 24 f0          	mov    %eax,-0x10(%rsp)
  4015e1:	8b 44 24 e0          	mov    -0x20(%rsp),%eax
  4015e5:	69 c0 4b c4 00 00    	imul   $0xc44b,%eax,%eax
  4015eb:	89 44 24 e0          	mov    %eax,-0x20(%rsp)
  4015ef:	8b 44 24 d4          	mov    -0x2c(%rsp),%eax
  4015f3:	69 c0 93 16 00 00    	imul   $0x1693,%eax,%eax
  4015f9:	89 44 24 d4          	mov    %eax,-0x2c(%rsp)
  4015fd:	8b 44 24 d8          	mov    -0x28(%rsp),%eax
  401601:	69 c0 73 12 00 00    	imul   $0x1273,%eax,%eax
  401607:	89 44 24 d8          	mov    %eax,-0x28(%rsp)
  40160b:	8b 44 24 d8          	mov    -0x28(%rsp),%eax
  40160f:	69 c0 5e ab 00 00    	imul   $0xab5e,%eax,%eax
  401615:	89 44 24 d8          	mov    %eax,-0x28(%rsp)
  401619:	8b 44 24 f0          	mov    -0x10(%rsp),%eax
  40161d:	69 c0 71 2c 00 00    	imul   $0x2c71,%eax,%eax
  401623:	89 44 24 f0          	mov    %eax,-0x10(%rsp)
  401627:	8b 44 24 dc          	mov    -0x24(%rsp),%eax
  40162b:	69 c0 f2 22 00 00    	imul   $0x22f2,%eax,%eax
  401631:	89 44 24 dc          	mov    %eax,-0x24(%rsp)
  401635:	8b 44 24 f4          	mov    -0xc(%rsp),%eax
  401639:	69 c0 df 50 00 00    	imul   $0x50df,%eax,%eax
  40163f:	89 44 24 f4          	mov    %eax,-0xc(%rsp)
  401643:	8b 44 24 d4          	mov    -0x2c(%rsp),%eax
  401647:	69 c0 7e 73 00 00    	imul   $0x737e,%eax,%eax
  40164d:	89 44 24 d4          	mov    %eax,-0x2c(%rsp)
  401651:	8b 44 24 ec          	mov    -0x14(%rsp),%eax
  401655:	69 c0 11 f8 00 00    	imul   $0xf811,%eax,%eax
  40165b:	89 44 24 ec          	mov    %eax,-0x14(%rsp)
  40165f:	8b 44 24 d4          	mov    -0x2c(%rsp),%eax
  401663:	69 c0 6e 66 00 00    	imul   $0x666e,%eax,%eax
  401669:	89 44 24 d4          	mov    %eax,-0x2c(%rsp)
  40166d:	8b 44 24 dc          	mov    -0x24(%rsp),%eax
  401671:	69 c0 d4 32 00 00    	imul   $0x32d4,%eax,%eax
  401677:	89 44 24 dc          	mov    %eax,-0x24(%rsp)
  40167b:	8b 44 24 d0          	mov    -0x30(%rsp),%eax
  40167f:	69 c0 72 81 00 00    	imul   $0x8172,%eax,%eax
  401685:	89 44 24 d0          	mov    %eax,-0x30(%rsp)
  401689:	8b 44 24 d4          	mov    -0x2c(%rsp),%eax
  40168d:	69 c0 af d5 00 00    	imul   $0xd5af,%eax,%eax
  401693:	89 44 24 d4          	mov    %eax,-0x2c(%rsp)
  401697:	8b 44 24 e8          	mov    -0x18(%rsp),%eax
  40169b:	69 c0 5b 6c 00 00    	imul   $0x6c5b,%eax,%eax
  4016a1:	89 44 24 e8          	mov    %eax,-0x18(%rsp)
  4016a5:	8b 44 24 f0          	mov    -0x10(%rsp),%eax
  4016a9:	69 c0 39 0e 00 00    	imul   $0xe39,%eax,%eax
  4016af:	89 44 24 f0          	mov    %eax,-0x10(%rsp)
  4016b3:	8b 44 24 f4          	mov    -0xc(%rsp),%eax
  4016b7:	69 c0 a3 c4 00 00    	imul   $0xc4a3,%eax,%eax
  4016bd:	89 44 24 f4          	mov    %eax,-0xc(%rsp)
  4016c1:	8b 44 24 f0          	mov    -0x10(%rsp),%eax
  4016c5:	69 c0 6a f4 00 00    	imul   $0xf46a,%eax,%eax
  4016cb:	89 44 24 f0          	mov    %eax,-0x10(%rsp)
  4016cf:	8b 44 24 f0          	mov    -0x10(%rsp),%eax
  4016d3:	69 c0 d4 d3 00 00    	imul   $0xd3d4,%eax,%eax
  4016d9:	89 44 24 f0          	mov    %eax,-0x10(%rsp)
  4016dd:	8b 44 24 dc          	mov    -0x24(%rsp),%eax
  4016e1:	69 c0 fb 23 00 00    	imul   $0x23fb,%eax,%eax
  4016e7:	89 44 24 dc          	mov    %eax,-0x24(%rsp)
  4016eb:	8b 44 24 e0          	mov    -0x20(%rsp),%eax
  4016ef:	69 c0 32 06 00 00    	imul   $0x632,%eax,%eax
  4016f5:	89 44 24 e0          	mov    %eax,-0x20(%rsp)
  4016f9:	8b 44 24 e0          	mov    -0x20(%rsp),%eax
  4016fd:	69 c0 e7 6a 00 00    	imul   $0x6ae7,%eax,%eax
  401703:	89 44 24 e0          	mov    %eax,-0x20(%rsp)
  401707:	8b 44 24 f0          	mov    -0x10(%rsp),%eax
  40170b:	69 c0 a2 41 00 00    	imul   $0x41a2,%eax,%eax
  401711:	89 44 24 f0          	mov    %eax,-0x10(%rsp)
  401715:	8b 44 24 d0          	mov    -0x30(%rsp),%eax
  401719:	69 c0 09 d2 00 00    	imul   $0xd209,%eax,%eax
  40171f:	89 44 24 d0          	mov    %eax,-0x30(%rsp)
  401723:	8b 44 24 e4          	mov    -0x1c(%rsp),%eax
  401727:	69 c0 44 8f 00 00    	imul   $0x8f44,%eax,%eax
  40172d:	89 44 24 e4          	mov    %eax,-0x1c(%rsp)
  401731:	8b 44 24 f0          	mov    -0x10(%rsp),%eax
  401735:	69 c0 e9 b4 00 00    	imul   $0xb4e9,%eax,%eax
  40173b:	89 44 24 f0          	mov    %eax,-0x10(%rsp)
  40173f:	ba 00 00 00 00       	mov    $0x0,%edx
  401744:	b8 00 00 00 00       	mov    $0x0,%eax
  401749:	eb 0b                	jmp    401756 <scramble+0x52e>
  40174b:	89 d1                	mov    %edx,%ecx
  40174d:	8b 4c 8c d0          	mov    -0x30(%rsp,%rcx,4),%ecx
  401751:	01 c8                	add    %ecx,%eax
  401753:	83 c2 01             	add    $0x1,%edx
  401756:	83 fa 09             	cmp    $0x9,%edx
  401759:	76 f0                	jbe    40174b <scramble+0x523>
  40175b:	f3 c3                	repz retq 

000000000040175d <getbuf>:
  40175d:	48 83 ec 18          	sub    $0x18,%rsp
  401761:	48 89 e7             	mov    %rsp,%rdi
  401764:	e8 4d 03 00 00       	callq  401ab6 <Gets>
  401769:	b8 01 00 00 00       	mov    $0x1,%eax
  40176e:	48 83 c4 18          	add    $0x18,%rsp
  401772:	c3                   	retq   

0000000000401773 <touch1>:
  401773:	48 83 ec 08          	sub    $0x8,%rsp
  401777:	c7 05 5b 42 20 00 01 	movl   $0x1,0x20425b(%rip)        # 6059dc <vlevel>
  40177e:	00 00 00 
  401781:	bf ed 37 40 00       	mov    $0x4037ed,%edi
  401786:	e8 a5 f4 ff ff       	callq  400c30 <puts@plt>
  40178b:	bf 01 00 00 00       	mov    $0x1,%edi
  401790:	e8 1c 05 00 00       	callq  401cb1 <validate>
  401795:	bf 00 00 00 00       	mov    $0x0,%edi
  40179a:	e8 11 f6 ff ff       	callq  400db0 <exit@plt>

000000000040179f <touch2>:
  40179f:	48 83 ec 08          	sub    $0x8,%rsp
  4017a3:	89 fe                	mov    %edi,%esi
  4017a5:	c7 05 2d 42 20 00 02 	movl   $0x2,0x20422d(%rip)        # 6059dc <vlevel>
  4017ac:	00 00 00 
  4017af:	39 3d 2f 42 20 00    	cmp    %edi,0x20422f(%rip)        # 6059e4 <cookie>
  4017b5:	74 23                	je     4017da <touch2+0x3b>
  4017b7:	bf 38 38 40 00       	mov    $0x403838,%edi
  4017bc:	b8 00 00 00 00       	mov    $0x0,%eax
  4017c1:	e8 9a f4 ff ff       	callq  400c60 <printf@plt>
  4017c6:	bf 02 00 00 00       	mov    $0x2,%edi
  4017cb:	e8 93 05 00 00       	callq  401d63 <fail>
  4017d0:	bf 00 00 00 00       	mov    $0x0,%edi
  4017d5:	e8 d6 f5 ff ff       	callq  400db0 <exit@plt>
  4017da:	bf 10 38 40 00       	mov    $0x403810,%edi
  4017df:	b8 00 00 00 00       	mov    $0x0,%eax
  4017e4:	e8 77 f4 ff ff       	callq  400c60 <printf@plt>
  4017e9:	bf 02 00 00 00       	mov    $0x2,%edi
  4017ee:	e8 be 04 00 00       	callq  401cb1 <validate>
  4017f3:	eb db                	jmp    4017d0 <touch2+0x31>

00000000004017f5 <hexmatch>:
  4017f5:	41 54                	push   %r12
  4017f7:	55                   	push   %rbp
  4017f8:	53                   	push   %rbx
  4017f9:	48 83 ec 70          	sub    $0x70,%rsp
  4017fd:	89 fd                	mov    %edi,%ebp
  4017ff:	48 89 f3             	mov    %rsi,%rbx
  401802:	e8 09 f5 ff ff       	callq  400d10 <random@plt>
  401807:	48 89 c1             	mov    %rax,%rcx
  40180a:	48 ba 0b d7 a3 70 3d 	movabs $0xa3d70a3d70a3d70b,%rdx
  401811:	0a d7 a3 
  401814:	48 f7 ea             	imul   %rdx
  401817:	48 01 ca             	add    %rcx,%rdx
  40181a:	48 c1 fa 06          	sar    $0x6,%rdx
  40181e:	48 89 c8             	mov    %rcx,%rax
  401821:	48 c1 f8 3f          	sar    $0x3f,%rax
  401825:	48 29 c2             	sub    %rax,%rdx
  401828:	48 8d 04 92          	lea    (%rdx,%rdx,4),%rax
  40182c:	48 8d 14 80          	lea    (%rax,%rax,4),%rdx
  401830:	48 8d 04 95 00 00 00 	lea    0x0(,%rdx,4),%rax
  401837:	00 
  401838:	48 29 c1             	sub    %rax,%rcx
  40183b:	4c 8d 24 0c          	lea    (%rsp,%rcx,1),%r12
  40183f:	89 ea                	mov    %ebp,%edx
  401841:	be 0a 38 40 00       	mov    $0x40380a,%esi
  401846:	4c 89 e7             	mov    %r12,%rdi
  401849:	b8 00 00 00 00       	mov    $0x0,%eax
  40184e:	e8 4d f5 ff ff       	callq  400da0 <sprintf@plt>
  401853:	ba 09 00 00 00       	mov    $0x9,%edx
  401858:	4c 89 e6             	mov    %r12,%rsi
  40185b:	48 89 df             	mov    %rbx,%rdi
  40185e:	e8 ad f3 ff ff       	callq  400c10 <strncmp@plt>
  401863:	85 c0                	test   %eax,%eax
  401865:	0f 94 c0             	sete   %al
  401868:	0f b6 c0             	movzbl %al,%eax
  40186b:	48 83 c4 70          	add    $0x70,%rsp
  40186f:	5b                   	pop    %rbx
  401870:	5d                   	pop    %rbp
  401871:	41 5c                	pop    %r12
  401873:	c3                   	retq   

0000000000401874 <touch3>:
  401874:	53                   	push   %rbx
  401875:	48 89 fb             	mov    %rdi,%rbx
  401878:	c7 05 5a 41 20 00 03 	movl   $0x3,0x20415a(%rip)        # 6059dc <vlevel>
  40187f:	00 00 00 
  401882:	48 89 fe             	mov    %rdi,%rsi
  401885:	8b 3d 59 41 20 00    	mov    0x204159(%rip),%edi        # 6059e4 <cookie>
  40188b:	e8 65 ff ff ff       	callq  4017f5 <hexmatch>
  401890:	85 c0                	test   %eax,%eax
  401892:	74 26                	je     4018ba <touch3+0x46>
  401894:	48 89 de             	mov    %rbx,%rsi
  401897:	bf 60 38 40 00       	mov    $0x403860,%edi
  40189c:	b8 00 00 00 00       	mov    $0x0,%eax
  4018a1:	e8 ba f3 ff ff       	callq  400c60 <printf@plt>
  4018a6:	bf 03 00 00 00       	mov    $0x3,%edi
  4018ab:	e8 01 04 00 00       	callq  401cb1 <validate>
  4018b0:	bf 00 00 00 00       	mov    $0x0,%edi
  4018b5:	e8 f6 f4 ff ff       	callq  400db0 <exit@plt>
  4018ba:	48 89 de             	mov    %rbx,%rsi
  4018bd:	bf 88 38 40 00       	mov    $0x403888,%edi
  4018c2:	b8 00 00 00 00       	mov    $0x0,%eax
  4018c7:	e8 94 f3 ff ff       	callq  400c60 <printf@plt>
  4018cc:	bf 03 00 00 00       	mov    $0x3,%edi
  4018d1:	e8 8d 04 00 00       	callq  401d63 <fail>
  4018d6:	eb d8                	jmp    4018b0 <touch3+0x3c>

00000000004018d8 <test>:
  4018d8:	48 83 ec 08          	sub    $0x8,%rsp
  4018dc:	b8 00 00 00 00       	mov    $0x0,%eax
  4018e1:	e8 77 fe ff ff       	callq  40175d <getbuf>
  4018e6:	89 c6                	mov    %eax,%esi
  4018e8:	bf b0 38 40 00       	mov    $0x4038b0,%edi
  4018ed:	b8 00 00 00 00       	mov    $0x0,%eax
  4018f2:	e8 69 f3 ff ff       	callq  400c60 <printf@plt>
  4018f7:	48 83 c4 08          	add    $0x8,%rsp
  4018fb:	c3                   	retq   

00000000004018fc <start_farm>:
  4018fc:	b8 01 00 00 00       	mov    $0x1,%eax
  401901:	c3                   	retq   

0000000000401902 <setval_321>:
  401902:	c7 07 35 58 91 c3    	movl   $0xc3915835,(%rdi)
  401908:	c3                   	retq   

0000000000401909 <setval_487>:
  401909:	c7 07 48 89 c7 c3    	movl   $0xc3c78948,(%rdi)
  40190f:	c3                   	retq   

0000000000401910 <addval_398>:
  401910:	8d 87 48 89 c7 c3    	lea    -0x3c3876b8(%rdi),%eax
  401916:	c3                   	retq   

0000000000401917 <addval_207>:
  401917:	8d 87 58 90 c3 b1    	lea    -0x4e3c6fa8(%rdi),%eax
  40191d:	c3                   	retq   

000000000040191e <getval_381>:
  40191e:	b8 58 90 91 c3       	mov    $0xc3919058,%eax
  401923:	c3                   	retq   

0000000000401924 <getval_343>:
  401924:	b8 40 89 c7 c3       	mov    $0xc3c78940,%eax
  401929:	c3                   	retq   

000000000040192a <addval_204>:
  40192a:	8d 87 48 89 c7 91    	lea    -0x6e3876b8(%rdi),%eax
  401930:	c3                   	retq   

0000000000401931 <setval_316>:
  401931:	c7 07 fe db 58 90    	movl   $0x9058dbfe,(%rdi)
  401937:	c3                   	retq   

0000000000401938 <mid_farm>:
  401938:	b8 01 00 00 00       	mov    $0x1,%eax
  40193d:	c3                   	retq   

000000000040193e <add_xy>:
  40193e:	48 8d 04 37          	lea    (%rdi,%rsi,1),%rax
  401942:	c3                   	retq   

0000000000401943 <getval_284>:
  401943:	b8 89 c1 20 c0       	mov    $0xc020c189,%eax
  401948:	c3                   	retq   

0000000000401949 <getval_426>:
  401949:	b8 8b c1 08 c9       	mov    $0xc908c18b,%eax
  40194e:	c3                   	retq   

000000000040194f <addval_113>:
  40194f:	8d 87 48 89 e0 c2    	lea    -0x3d1f76b8(%rdi),%eax
  401955:	c3                   	retq   

0000000000401956 <addval_124>:
  401956:	8d 87 c9 ca 84 c0    	lea    -0x3f7b3537(%rdi),%eax
  40195c:	c3                   	retq   

000000000040195d <getval_149>:
  40195d:	b8 89 c1 18 db       	mov    $0xdb18c189,%eax
  401962:	c3                   	retq   

0000000000401963 <setval_134>:
  401963:	c7 07 77 89 ca 91    	movl   $0x91ca8977,(%rdi)
  401969:	c3                   	retq   

000000000040196a <getval_485>:
  40196a:	b8 99 c1 90 c3       	mov    $0xc390c199,%eax
  40196f:	c3                   	retq   

0000000000401970 <setval_153>:
  401970:	c7 07 08 89 e0 c3    	movl   $0xc3e08908,(%rdi)
  401976:	c3                   	retq   

0000000000401977 <addval_311>:
  401977:	8d 87 89 c1 91 90    	lea    -0x6f6e3e77(%rdi),%eax
  40197d:	c3                   	retq   

000000000040197e <addval_172>:
  40197e:	8d 87 48 89 e0 94    	lea    -0x6b1f76b8(%rdi),%eax
  401984:	c3                   	retq   

0000000000401985 <setval_181>:
  401985:	c7 07 42 89 ca 90    	movl   $0x90ca8942,(%rdi)
  40198b:	c3                   	retq   

000000000040198c <getval_259>:
  40198c:	b8 ba 8d ca 90       	mov    $0x90ca8dba,%eax
  401991:	c3                   	retq   

0000000000401992 <setval_497>:
  401992:	c7 07 48 81 e0 c3    	movl   $0xc3e08148,(%rdi)
  401998:	c3                   	retq   

0000000000401999 <setval_383>:
  401999:	c7 07 99 d6 38 c9    	movl   $0xc938d699,(%rdi)
  40199f:	c3                   	retq   

00000000004019a0 <addval_103>:
  4019a0:	8d 87 48 89 e0 90    	lea    -0x6f1f76b8(%rdi),%eax
  4019a6:	c3                   	retq   

00000000004019a7 <setval_422>:
  4019a7:	c7 07 48 89 e0 c3    	movl   $0xc3e08948,(%rdi)
  4019ad:	c3                   	retq   

00000000004019ae <getval_333>:
  4019ae:	b8 89 ca 94 c0       	mov    $0xc094ca89,%eax
  4019b3:	c3                   	retq   

00000000004019b4 <addval_367>:
  4019b4:	8d 87 89 ca 84 db    	lea    -0x247b3577(%rdi),%eax
  4019ba:	c3                   	retq   

00000000004019bb <setval_459>:
  4019bb:	c7 07 89 d6 90 c2    	movl   $0xc290d689,(%rdi)
  4019c1:	c3                   	retq   

00000000004019c2 <getval_401>:
  4019c2:	b8 81 ca 38 c9       	mov    $0xc938ca81,%eax
  4019c7:	c3                   	retq   

00000000004019c8 <getval_178>:
  4019c8:	b8 89 c1 90 90       	mov    $0x9090c189,%eax
  4019cd:	c3                   	retq   

00000000004019ce <addval_173>:
  4019ce:	8d 87 89 d6 a4 d2    	lea    -0x2d5b2977(%rdi),%eax
  4019d4:	c3                   	retq   

00000000004019d5 <getval_423>:
  4019d5:	b8 48 89 e0 c7       	mov    $0xc7e08948,%eax
  4019da:	c3                   	retq   

00000000004019db <getval_270>:
  4019db:	b8 48 89 e0 91       	mov    $0x91e08948,%eax
  4019e0:	c3                   	retq   

00000000004019e1 <getval_308>:
  4019e1:	b8 ad ef 89 d6       	mov    $0xd689efad,%eax
  4019e6:	c3                   	retq   

00000000004019e7 <addval_440>:
  4019e7:	8d 87 89 d6 94 c3    	lea    -0x3c6b2977(%rdi),%eax
  4019ed:	c3                   	retq   

00000000004019ee <addval_230>:
  4019ee:	8d 87 81 d6 20 db    	lea    -0x24df297f(%rdi),%eax
  4019f4:	c3                   	retq   

00000000004019f5 <setval_322>:
  4019f5:	c7 07 c9 c1 90 c3    	movl   $0xc390c1c9,(%rdi)
  4019fb:	c3                   	retq   

00000000004019fc <getval_244>:
  4019fc:	b8 e3 89 d6 90       	mov    $0x90d689e3,%eax
  401a01:	c3                   	retq   

0000000000401a02 <addval_269>:
  401a02:	8d 87 09 d6 08 c9    	lea    -0x36f729f7(%rdi),%eax
  401a08:	c3                   	retq   

0000000000401a09 <getval_465>:
  401a09:	b8 89 ca 90 c2       	mov    $0xc290ca89,%eax
  401a0e:	c3                   	retq   

0000000000401a0f <addval_101>:
  401a0f:	8d 87 89 c1 18 c0    	lea    -0x3fe73e77(%rdi),%eax
  401a15:	c3                   	retq   

0000000000401a16 <end_farm>:
  401a16:	b8 01 00 00 00       	mov    $0x1,%eax
  401a1b:	c3                   	retq   

0000000000401a1c <save_char>:
  401a1c:	8b 05 e2 4b 20 00    	mov    0x204be2(%rip),%eax        # 606604 <gets_cnt>
  401a22:	3d ff 03 00 00       	cmp    $0x3ff,%eax
  401a27:	7f 49                	jg     401a72 <save_char+0x56>
  401a29:	89 f9                	mov    %edi,%ecx
  401a2b:	c0 e9 04             	shr    $0x4,%cl
  401a2e:	8d 14 40             	lea    (%rax,%rax,2),%edx
  401a31:	83 e1 0f             	and    $0xf,%ecx
  401a34:	0f b6 b1 d0 3b 40 00 	movzbl 0x403bd0(%rcx),%esi
  401a3b:	48 63 ca             	movslq %edx,%rcx
  401a3e:	40 88 b1 00 5a 60 00 	mov    %sil,0x605a00(%rcx)
  401a45:	8d 4a 01             	lea    0x1(%rdx),%ecx
  401a48:	83 e7 0f             	and    $0xf,%edi
  401a4b:	0f b6 b7 d0 3b 40 00 	movzbl 0x403bd0(%rdi),%esi
  401a52:	48 63 c9             	movslq %ecx,%rcx
  401a55:	40 88 b1 00 5a 60 00 	mov    %sil,0x605a00(%rcx)
  401a5c:	83 c2 02             	add    $0x2,%edx
  401a5f:	48 63 d2             	movslq %edx,%rdx
  401a62:	c6 82 00 5a 60 00 20 	movb   $0x20,0x605a00(%rdx)
  401a69:	83 c0 01             	add    $0x1,%eax
  401a6c:	89 05 92 4b 20 00    	mov    %eax,0x204b92(%rip)        # 606604 <gets_cnt>
  401a72:	f3 c3                	repz retq 

0000000000401a74 <save_term>:
  401a74:	8b 05 8a 4b 20 00    	mov    0x204b8a(%rip),%eax        # 606604 <gets_cnt>
  401a7a:	8d 04 40             	lea    (%rax,%rax,2),%eax
  401a7d:	48 98                	cltq   
  401a7f:	c6 80 00 5a 60 00 00 	movb   $0x0,0x605a00(%rax)
  401a86:	c3                   	retq   

0000000000401a87 <check_fail>:
  401a87:	48 83 ec 08          	sub    $0x8,%rsp
  401a8b:	0f be 35 76 4b 20 00 	movsbl 0x204b76(%rip),%esi        # 606608 <target_prefix>
  401a92:	b9 00 5a 60 00       	mov    $0x605a00,%ecx
  401a97:	8b 15 3b 3f 20 00    	mov    0x203f3b(%rip),%edx        # 6059d8 <check_level>
  401a9d:	bf d3 38 40 00       	mov    $0x4038d3,%edi
  401aa2:	b8 00 00 00 00       	mov    $0x0,%eax
  401aa7:	e8 b4 f1 ff ff       	callq  400c60 <printf@plt>
  401aac:	bf 01 00 00 00       	mov    $0x1,%edi
  401ab1:	e8 fa f2 ff ff       	callq  400db0 <exit@plt>

0000000000401ab6 <Gets>:
  401ab6:	41 54                	push   %r12
  401ab8:	55                   	push   %rbp
  401ab9:	53                   	push   %rbx
  401aba:	49 89 fc             	mov    %rdi,%r12
  401abd:	c7 05 3d 4b 20 00 00 	movl   $0x0,0x204b3d(%rip)        # 606604 <gets_cnt>
  401ac4:	00 00 00 
  401ac7:	48 89 fb             	mov    %rdi,%rbx
  401aca:	eb 11                	jmp    401add <Gets+0x27>
  401acc:	48 8d 6b 01          	lea    0x1(%rbx),%rbp
  401ad0:	88 03                	mov    %al,(%rbx)
  401ad2:	0f b6 f8             	movzbl %al,%edi
  401ad5:	e8 42 ff ff ff       	callq  401a1c <save_char>
  401ada:	48 89 eb             	mov    %rbp,%rbx
  401add:	48 8b 3d ec 3e 20 00 	mov    0x203eec(%rip),%rdi        # 6059d0 <infile>
  401ae4:	e8 37 f2 ff ff       	callq  400d20 <_IO_getc@plt>
  401ae9:	83 f8 ff             	cmp    $0xffffffff,%eax
  401aec:	74 05                	je     401af3 <Gets+0x3d>
  401aee:	83 f8 0a             	cmp    $0xa,%eax
  401af1:	75 d9                	jne    401acc <Gets+0x16>
  401af3:	c6 03 00             	movb   $0x0,(%rbx)
  401af6:	b8 00 00 00 00       	mov    $0x0,%eax
  401afb:	e8 74 ff ff ff       	callq  401a74 <save_term>
  401b00:	4c 89 e0             	mov    %r12,%rax
  401b03:	5b                   	pop    %rbx
  401b04:	5d                   	pop    %rbp
  401b05:	41 5c                	pop    %r12
  401b07:	c3                   	retq   

0000000000401b08 <notify_server>:
  401b08:	83 3d d9 3e 20 00 00 	cmpl   $0x0,0x203ed9(%rip)        # 6059e8 <is_checker>
  401b0f:	0f 85 9a 01 00 00    	jne    401caf <notify_server+0x1a7>
  401b15:	55                   	push   %rbp
  401b16:	53                   	push   %rbx
  401b17:	48 81 ec 08 40 00 00 	sub    $0x4008,%rsp
  401b1e:	89 fb                	mov    %edi,%ebx
  401b20:	8b 05 de 4a 20 00    	mov    0x204ade(%rip),%eax        # 606604 <gets_cnt>
  401b26:	83 c0 64             	add    $0x64,%eax
  401b29:	3d 00 20 00 00       	cmp    $0x2000,%eax
  401b2e:	0f 8f b5 00 00 00    	jg     401be9 <notify_server+0xe1>
  401b34:	44 0f be 0d cc 4a 20 	movsbl 0x204acc(%rip),%r9d        # 606608 <target_prefix>
  401b3b:	00 
  401b3c:	83 3d 25 3e 20 00 00 	cmpl   $0x0,0x203e25(%rip)        # 605968 <notify>
  401b43:	0f 84 b9 00 00 00    	je     401c02 <notify_server+0xfa>
  401b49:	44 8b 05 90 3e 20 00 	mov    0x203e90(%rip),%r8d        # 6059e0 <authkey>
  401b50:	85 db                	test   %ebx,%ebx
  401b52:	0f 84 b5 00 00 00    	je     401c0d <notify_server+0x105>
  401b58:	bd e9 38 40 00       	mov    $0x4038e9,%ebp
  401b5d:	68 00 5a 60 00       	pushq  $0x605a00
  401b62:	56                   	push   %rsi
  401b63:	48 89 e9             	mov    %rbp,%rcx
  401b66:	8b 15 dc 35 20 00    	mov    0x2035dc(%rip),%edx        # 605148 <target_id>
  401b6c:	be f3 38 40 00       	mov    $0x4038f3,%esi
  401b71:	48 8d bc 24 10 20 00 	lea    0x2010(%rsp),%rdi
  401b78:	00 
  401b79:	b8 00 00 00 00       	mov    $0x0,%eax
  401b7e:	e8 1d f2 ff ff       	callq  400da0 <sprintf@plt>
  401b83:	48 83 c4 10          	add    $0x10,%rsp
  401b87:	83 3d da 3d 20 00 00 	cmpl   $0x0,0x203dda(%rip)        # 605968 <notify>
  401b8e:	0f 84 ab 00 00 00    	je     401c3f <notify_server+0x137>
  401b94:	85 db                	test   %ebx,%ebx
  401b96:	0f 84 97 00 00 00    	je     401c33 <notify_server+0x12b>
  401b9c:	49 89 e1             	mov    %rsp,%r9
  401b9f:	41 b8 00 00 00 00    	mov    $0x0,%r8d
  401ba5:	48 8d 8c 24 00 20 00 	lea    0x2000(%rsp),%rcx
  401bac:	00 
  401bad:	48 8b 15 9c 35 20 00 	mov    0x20359c(%rip),%rdx        # 605150 <lab>
  401bb4:	48 8b 35 9d 35 20 00 	mov    0x20359d(%rip),%rsi        # 605158 <course>
  401bbb:	48 8b 3d 7e 35 20 00 	mov    0x20357e(%rip),%rdi        # 605140 <user_id>
  401bc2:	e8 db 0f 00 00       	callq  402ba2 <driver_post>
  401bc7:	85 c0                	test   %eax,%eax
  401bc9:	78 4c                	js     401c17 <notify_server+0x10f>
  401bcb:	bf 38 3a 40 00       	mov    $0x403a38,%edi
  401bd0:	e8 5b f0 ff ff       	callq  400c30 <puts@plt>
  401bd5:	bf 1b 39 40 00       	mov    $0x40391b,%edi
  401bda:	e8 51 f0 ff ff       	callq  400c30 <puts@plt>
  401bdf:	48 81 c4 08 40 00 00 	add    $0x4008,%rsp
  401be6:	5b                   	pop    %rbx
  401be7:	5d                   	pop    %rbp
  401be8:	c3                   	retq   
  401be9:	bf 08 3a 40 00       	mov    $0x403a08,%edi
  401bee:	b8 00 00 00 00       	mov    $0x0,%eax
  401bf3:	e8 68 f0 ff ff       	callq  400c60 <printf@plt>
  401bf8:	bf 01 00 00 00       	mov    $0x1,%edi
  401bfd:	e8 ae f1 ff ff       	callq  400db0 <exit@plt>
  401c02:	41 b8 ff ff ff ff    	mov    $0xffffffff,%r8d
  401c08:	e9 43 ff ff ff       	jmpq   401b50 <notify_server+0x48>
  401c0d:	bd ee 38 40 00       	mov    $0x4038ee,%ebp
  401c12:	e9 46 ff ff ff       	jmpq   401b5d <notify_server+0x55>
  401c17:	48 89 e6             	mov    %rsp,%rsi
  401c1a:	bf 0f 39 40 00       	mov    $0x40390f,%edi
  401c1f:	b8 00 00 00 00       	mov    $0x0,%eax
  401c24:	e8 37 f0 ff ff       	callq  400c60 <printf@plt>
  401c29:	bf 01 00 00 00       	mov    $0x1,%edi
  401c2e:	e8 7d f1 ff ff       	callq  400db0 <exit@plt>
  401c33:	bf 25 39 40 00       	mov    $0x403925,%edi
  401c38:	e8 f3 ef ff ff       	callq  400c30 <puts@plt>
  401c3d:	eb a0                	jmp    401bdf <notify_server+0xd7>
  401c3f:	48 89 ee             	mov    %rbp,%rsi
  401c42:	bf 70 3a 40 00       	mov    $0x403a70,%edi
  401c47:	b8 00 00 00 00       	mov    $0x0,%eax
  401c4c:	e8 0f f0 ff ff       	callq  400c60 <printf@plt>
  401c51:	48 8b 35 e8 34 20 00 	mov    0x2034e8(%rip),%rsi        # 605140 <user_id>
  401c58:	bf 2c 39 40 00       	mov    $0x40392c,%edi
  401c5d:	b8 00 00 00 00       	mov    $0x0,%eax
  401c62:	e8 f9 ef ff ff       	callq  400c60 <printf@plt>
  401c67:	48 8b 35 ea 34 20 00 	mov    0x2034ea(%rip),%rsi        # 605158 <course>
  401c6e:	bf 39 39 40 00       	mov    $0x403939,%edi
  401c73:	b8 00 00 00 00       	mov    $0x0,%eax
  401c78:	e8 e3 ef ff ff       	callq  400c60 <printf@plt>
  401c7d:	48 8b 35 cc 34 20 00 	mov    0x2034cc(%rip),%rsi        # 605150 <lab>
  401c84:	bf 45 39 40 00       	mov    $0x403945,%edi
  401c89:	b8 00 00 00 00       	mov    $0x0,%eax
  401c8e:	e8 cd ef ff ff       	callq  400c60 <printf@plt>
  401c93:	48 8d b4 24 00 20 00 	lea    0x2000(%rsp),%rsi
  401c9a:	00 
  401c9b:	bf 4e 39 40 00       	mov    $0x40394e,%edi
  401ca0:	b8 00 00 00 00       	mov    $0x0,%eax
  401ca5:	e8 b6 ef ff ff       	callq  400c60 <printf@plt>
  401caa:	e9 30 ff ff ff       	jmpq   401bdf <notify_server+0xd7>
  401caf:	f3 c3                	repz retq 

0000000000401cb1 <validate>:
  401cb1:	53                   	push   %rbx
  401cb2:	89 fb                	mov    %edi,%ebx
  401cb4:	83 3d 2d 3d 20 00 00 	cmpl   $0x0,0x203d2d(%rip)        # 6059e8 <is_checker>
  401cbb:	74 60                	je     401d1d <validate+0x6c>
  401cbd:	39 3d 19 3d 20 00    	cmp    %edi,0x203d19(%rip)        # 6059dc <vlevel>
  401cc3:	75 29                	jne    401cee <validate+0x3d>
  401cc5:	8b 35 0d 3d 20 00    	mov    0x203d0d(%rip),%esi        # 6059d8 <check_level>
  401ccb:	39 fe                	cmp    %edi,%esi
  401ccd:	75 33                	jne    401d02 <validate+0x51>
  401ccf:	0f be 35 32 49 20 00 	movsbl 0x204932(%rip),%esi        # 606608 <target_prefix>
  401cd6:	b9 00 5a 60 00       	mov    $0x605a00,%ecx
  401cdb:	89 fa                	mov    %edi,%edx
  401cdd:	bf 78 39 40 00       	mov    $0x403978,%edi
  401ce2:	b8 00 00 00 00       	mov    $0x0,%eax
  401ce7:	e8 74 ef ff ff       	callq  400c60 <printf@plt>
  401cec:	5b                   	pop    %rbx
  401ced:	c3                   	retq   
  401cee:	bf 5a 39 40 00       	mov    $0x40395a,%edi
  401cf3:	e8 38 ef ff ff       	callq  400c30 <puts@plt>
  401cf8:	b8 00 00 00 00       	mov    $0x0,%eax
  401cfd:	e8 85 fd ff ff       	callq  401a87 <check_fail>
  401d02:	89 fa                	mov    %edi,%edx
  401d04:	bf 98 3a 40 00       	mov    $0x403a98,%edi
  401d09:	b8 00 00 00 00       	mov    $0x0,%eax
  401d0e:	e8 4d ef ff ff       	callq  400c60 <printf@plt>
  401d13:	b8 00 00 00 00       	mov    $0x0,%eax
  401d18:	e8 6a fd ff ff       	callq  401a87 <check_fail>
  401d1d:	39 3d b9 3c 20 00    	cmp    %edi,0x203cb9(%rip)        # 6059dc <vlevel>
  401d23:	74 18                	je     401d3d <validate+0x8c>
  401d25:	bf 5a 39 40 00       	mov    $0x40395a,%edi
  401d2a:	e8 01 ef ff ff       	callq  400c30 <puts@plt>
  401d2f:	89 de                	mov    %ebx,%esi
  401d31:	bf 00 00 00 00       	mov    $0x0,%edi
  401d36:	e8 cd fd ff ff       	callq  401b08 <notify_server>
  401d3b:	eb af                	jmp    401cec <validate+0x3b>
  401d3d:	0f be 15 c4 48 20 00 	movsbl 0x2048c4(%rip),%edx        # 606608 <target_prefix>
  401d44:	89 fe                	mov    %edi,%esi
  401d46:	bf c0 3a 40 00       	mov    $0x403ac0,%edi
  401d4b:	b8 00 00 00 00       	mov    $0x0,%eax
  401d50:	e8 0b ef ff ff       	callq  400c60 <printf@plt>
  401d55:	89 de                	mov    %ebx,%esi
  401d57:	bf 01 00 00 00       	mov    $0x1,%edi
  401d5c:	e8 a7 fd ff ff       	callq  401b08 <notify_server>
  401d61:	eb 89                	jmp    401cec <validate+0x3b>

0000000000401d63 <fail>:
  401d63:	48 83 ec 08          	sub    $0x8,%rsp
  401d67:	83 3d 7a 3c 20 00 00 	cmpl   $0x0,0x203c7a(%rip)        # 6059e8 <is_checker>
  401d6e:	75 11                	jne    401d81 <fail+0x1e>
  401d70:	89 fe                	mov    %edi,%esi
  401d72:	bf 00 00 00 00       	mov    $0x0,%edi
  401d77:	e8 8c fd ff ff       	callq  401b08 <notify_server>
  401d7c:	48 83 c4 08          	add    $0x8,%rsp
  401d80:	c3                   	retq   
  401d81:	b8 00 00 00 00       	mov    $0x0,%eax
  401d86:	e8 fc fc ff ff       	callq  401a87 <check_fail>

0000000000401d8b <bushandler>:
  401d8b:	48 83 ec 08          	sub    $0x8,%rsp
  401d8f:	83 3d 52 3c 20 00 00 	cmpl   $0x0,0x203c52(%rip)        # 6059e8 <is_checker>
  401d96:	74 14                	je     401dac <bushandler+0x21>
  401d98:	bf 8d 39 40 00       	mov    $0x40398d,%edi
  401d9d:	e8 8e ee ff ff       	callq  400c30 <puts@plt>
  401da2:	b8 00 00 00 00       	mov    $0x0,%eax
  401da7:	e8 db fc ff ff       	callq  401a87 <check_fail>
  401dac:	bf f8 3a 40 00       	mov    $0x403af8,%edi
  401db1:	e8 7a ee ff ff       	callq  400c30 <puts@plt>
  401db6:	bf 97 39 40 00       	mov    $0x403997,%edi
  401dbb:	e8 70 ee ff ff       	callq  400c30 <puts@plt>
  401dc0:	be 00 00 00 00       	mov    $0x0,%esi
  401dc5:	bf 00 00 00 00       	mov    $0x0,%edi
  401dca:	e8 39 fd ff ff       	callq  401b08 <notify_server>
  401dcf:	bf 01 00 00 00       	mov    $0x1,%edi
  401dd4:	e8 d7 ef ff ff       	callq  400db0 <exit@plt>

0000000000401dd9 <seghandler>:
  401dd9:	48 83 ec 08          	sub    $0x8,%rsp
  401ddd:	83 3d 04 3c 20 00 00 	cmpl   $0x0,0x203c04(%rip)        # 6059e8 <is_checker>
  401de4:	74 14                	je     401dfa <seghandler+0x21>
  401de6:	bf ad 39 40 00       	mov    $0x4039ad,%edi
  401deb:	e8 40 ee ff ff       	callq  400c30 <puts@plt>
  401df0:	b8 00 00 00 00       	mov    $0x0,%eax
  401df5:	e8 8d fc ff ff       	callq  401a87 <check_fail>
  401dfa:	bf 18 3b 40 00       	mov    $0x403b18,%edi
  401dff:	e8 2c ee ff ff       	callq  400c30 <puts@plt>
  401e04:	bf 97 39 40 00       	mov    $0x403997,%edi
  401e09:	e8 22 ee ff ff       	callq  400c30 <puts@plt>
  401e0e:	be 00 00 00 00       	mov    $0x0,%esi
  401e13:	bf 00 00 00 00       	mov    $0x0,%edi
  401e18:	e8 eb fc ff ff       	callq  401b08 <notify_server>
  401e1d:	bf 01 00 00 00       	mov    $0x1,%edi
  401e22:	e8 89 ef ff ff       	callq  400db0 <exit@plt>

0000000000401e27 <illegalhandler>:
  401e27:	48 83 ec 08          	sub    $0x8,%rsp
  401e2b:	83 3d b6 3b 20 00 00 	cmpl   $0x0,0x203bb6(%rip)        # 6059e8 <is_checker>
  401e32:	74 14                	je     401e48 <illegalhandler+0x21>
  401e34:	bf c0 39 40 00       	mov    $0x4039c0,%edi
  401e39:	e8 f2 ed ff ff       	callq  400c30 <puts@plt>
  401e3e:	b8 00 00 00 00       	mov    $0x0,%eax
  401e43:	e8 3f fc ff ff       	callq  401a87 <check_fail>
  401e48:	bf 40 3b 40 00       	mov    $0x403b40,%edi
  401e4d:	e8 de ed ff ff       	callq  400c30 <puts@plt>
  401e52:	bf 97 39 40 00       	mov    $0x403997,%edi
  401e57:	e8 d4 ed ff ff       	callq  400c30 <puts@plt>
  401e5c:	be 00 00 00 00       	mov    $0x0,%esi
  401e61:	bf 00 00 00 00       	mov    $0x0,%edi
  401e66:	e8 9d fc ff ff       	callq  401b08 <notify_server>
  401e6b:	bf 01 00 00 00       	mov    $0x1,%edi
  401e70:	e8 3b ef ff ff       	callq  400db0 <exit@plt>

0000000000401e75 <sigalrmhandler>:
  401e75:	48 83 ec 08          	sub    $0x8,%rsp
  401e79:	83 3d 68 3b 20 00 00 	cmpl   $0x0,0x203b68(%rip)        # 6059e8 <is_checker>
  401e80:	74 14                	je     401e96 <sigalrmhandler+0x21>
  401e82:	bf d4 39 40 00       	mov    $0x4039d4,%edi
  401e87:	e8 a4 ed ff ff       	callq  400c30 <puts@plt>
  401e8c:	b8 00 00 00 00       	mov    $0x0,%eax
  401e91:	e8 f1 fb ff ff       	callq  401a87 <check_fail>
  401e96:	be 05 00 00 00       	mov    $0x5,%esi
  401e9b:	bf 70 3b 40 00       	mov    $0x403b70,%edi
  401ea0:	b8 00 00 00 00       	mov    $0x0,%eax
  401ea5:	e8 b6 ed ff ff       	callq  400c60 <printf@plt>
  401eaa:	be 00 00 00 00       	mov    $0x0,%esi
  401eaf:	bf 00 00 00 00       	mov    $0x0,%edi
  401eb4:	e8 4f fc ff ff       	callq  401b08 <notify_server>
  401eb9:	bf 01 00 00 00       	mov    $0x1,%edi
  401ebe:	e8 ed ee ff ff       	callq  400db0 <exit@plt>

0000000000401ec3 <launch>:
  401ec3:	55                   	push   %rbp
  401ec4:	48 89 e5             	mov    %rsp,%rbp
  401ec7:	48 89 fa             	mov    %rdi,%rdx
  401eca:	48 8d 47 1e          	lea    0x1e(%rdi),%rax
  401ece:	48 83 e0 f0          	and    $0xfffffffffffffff0,%rax
  401ed2:	48 29 c4             	sub    %rax,%rsp
  401ed5:	48 8d 7c 24 0f       	lea    0xf(%rsp),%rdi
  401eda:	48 83 e7 f0          	and    $0xfffffffffffffff0,%rdi
  401ede:	be f4 00 00 00       	mov    $0xf4,%esi
  401ee3:	e8 88 ed ff ff       	callq  400c70 <memset@plt>
  401ee8:	48 8b 05 91 3a 20 00 	mov    0x203a91(%rip),%rax        # 605980 <stdin@@GLIBC_2.2.5>
  401eef:	48 39 05 da 3a 20 00 	cmp    %rax,0x203ada(%rip)        # 6059d0 <infile>
  401ef6:	74 29                	je     401f21 <launch+0x5e>
  401ef8:	c7 05 da 3a 20 00 00 	movl   $0x0,0x203ada(%rip)        # 6059dc <vlevel>
  401eff:	00 00 00 
  401f02:	b8 00 00 00 00       	mov    $0x0,%eax
  401f07:	e8 cc f9 ff ff       	callq  4018d8 <test>
  401f0c:	83 3d d5 3a 20 00 00 	cmpl   $0x0,0x203ad5(%rip)        # 6059e8 <is_checker>
  401f13:	75 1d                	jne    401f32 <launch+0x6f>
  401f15:	bf f4 39 40 00       	mov    $0x4039f4,%edi
  401f1a:	e8 11 ed ff ff       	callq  400c30 <puts@plt>
  401f1f:	c9                   	leaveq 
  401f20:	c3                   	retq   
  401f21:	bf dc 39 40 00       	mov    $0x4039dc,%edi
  401f26:	b8 00 00 00 00       	mov    $0x0,%eax
  401f2b:	e8 30 ed ff ff       	callq  400c60 <printf@plt>
  401f30:	eb c6                	jmp    401ef8 <launch+0x35>
  401f32:	bf e9 39 40 00       	mov    $0x4039e9,%edi
  401f37:	e8 f4 ec ff ff       	callq  400c30 <puts@plt>
  401f3c:	b8 00 00 00 00       	mov    $0x0,%eax
  401f41:	e8 41 fb ff ff       	callq  401a87 <check_fail>

0000000000401f46 <stable_launch>:
  401f46:	53                   	push   %rbx
  401f47:	48 89 3d 7a 3a 20 00 	mov    %rdi,0x203a7a(%rip)        # 6059c8 <global_offset>
  401f4e:	41 b9 00 00 00 00    	mov    $0x0,%r9d
  401f54:	41 b8 00 00 00 00    	mov    $0x0,%r8d
  401f5a:	b9 32 01 00 00       	mov    $0x132,%ecx
  401f5f:	ba 07 00 00 00       	mov    $0x7,%edx
  401f64:	be 00 00 10 00       	mov    $0x100000,%esi
  401f69:	bf 00 60 58 55       	mov    $0x55586000,%edi
  401f6e:	e8 dd ec ff ff       	callq  400c50 <mmap@plt>
  401f73:	48 89 c3             	mov    %rax,%rbx
  401f76:	48 3d 00 60 58 55    	cmp    $0x55586000,%rax
  401f7c:	75 43                	jne    401fc1 <stable_launch+0x7b>
  401f7e:	48 8d 90 f8 ff 0f 00 	lea    0xffff8(%rax),%rdx
  401f85:	48 89 15 84 46 20 00 	mov    %rdx,0x204684(%rip)        # 606610 <stack_top>
  401f8c:	48 89 e0             	mov    %rsp,%rax
  401f8f:	48 89 d4             	mov    %rdx,%rsp
  401f92:	48 89 c2             	mov    %rax,%rdx
  401f95:	48 89 15 24 3a 20 00 	mov    %rdx,0x203a24(%rip)        # 6059c0 <global_save_stack>
  401f9c:	48 8b 3d 25 3a 20 00 	mov    0x203a25(%rip),%rdi        # 6059c8 <global_offset>
  401fa3:	e8 1b ff ff ff       	callq  401ec3 <launch>
  401fa8:	48 8b 05 11 3a 20 00 	mov    0x203a11(%rip),%rax        # 6059c0 <global_save_stack>
  401faf:	48 89 c4             	mov    %rax,%rsp
  401fb2:	be 00 00 10 00       	mov    $0x100000,%esi
  401fb7:	48 89 df             	mov    %rbx,%rdi
  401fba:	e8 81 ed ff ff       	callq  400d40 <munmap@plt>
  401fbf:	5b                   	pop    %rbx
  401fc0:	c3                   	retq   
  401fc1:	be 00 00 10 00       	mov    $0x100000,%esi
  401fc6:	48 89 c7             	mov    %rax,%rdi
  401fc9:	e8 72 ed ff ff       	callq  400d40 <munmap@plt>
  401fce:	ba 00 60 58 55       	mov    $0x55586000,%edx
  401fd3:	be a8 3b 40 00       	mov    $0x403ba8,%esi
  401fd8:	48 8b 3d c1 39 20 00 	mov    0x2039c1(%rip),%rdi        # 6059a0 <stderr@@GLIBC_2.2.5>
  401fdf:	b8 00 00 00 00       	mov    $0x0,%eax
  401fe4:	e8 e7 ec ff ff       	callq  400cd0 <fprintf@plt>
  401fe9:	bf 01 00 00 00       	mov    $0x1,%edi
  401fee:	e8 bd ed ff ff       	callq  400db0 <exit@plt>

0000000000401ff3 <rio_readinitb>:
  401ff3:	89 37                	mov    %esi,(%rdi)
  401ff5:	c7 47 04 00 00 00 00 	movl   $0x0,0x4(%rdi)
  401ffc:	48 8d 47 10          	lea    0x10(%rdi),%rax
  402000:	48 89 47 08          	mov    %rax,0x8(%rdi)
  402004:	c3                   	retq   

0000000000402005 <sigalrm_handler>:
  402005:	48 83 ec 08          	sub    $0x8,%rsp
  402009:	ba 00 00 00 00       	mov    $0x0,%edx
  40200e:	be e0 3b 40 00       	mov    $0x403be0,%esi
  402013:	48 8b 3d 86 39 20 00 	mov    0x203986(%rip),%rdi        # 6059a0 <stderr@@GLIBC_2.2.5>
  40201a:	b8 00 00 00 00       	mov    $0x0,%eax
  40201f:	e8 ac ec ff ff       	callq  400cd0 <fprintf@plt>
  402024:	bf 01 00 00 00       	mov    $0x1,%edi
  402029:	e8 82 ed ff ff       	callq  400db0 <exit@plt>

000000000040202e <urlencode>:
  40202e:	41 54                	push   %r12
  402030:	55                   	push   %rbp
  402031:	53                   	push   %rbx
  402032:	48 83 ec 10          	sub    $0x10,%rsp
  402036:	48 89 fb             	mov    %rdi,%rbx
  402039:	48 89 f5             	mov    %rsi,%rbp
  40203c:	48 c7 c1 ff ff ff ff 	mov    $0xffffffffffffffff,%rcx
  402043:	b8 00 00 00 00       	mov    $0x0,%eax
  402048:	f2 ae                	repnz scas %es:(%rdi),%al
  40204a:	48 89 ce             	mov    %rcx,%rsi
  40204d:	48 f7 d6             	not    %rsi
  402050:	8d 46 ff             	lea    -0x1(%rsi),%eax
  402053:	eb 0e                	jmp    402063 <urlencode+0x35>
  402055:	88 45 00             	mov    %al,0x0(%rbp)
  402058:	48 8d 6d 01          	lea    0x1(%rbp),%rbp
  40205c:	48 83 c3 01          	add    $0x1,%rbx
  402060:	44 89 e0             	mov    %r12d,%eax
  402063:	44 8d 60 ff          	lea    -0x1(%rax),%r12d
  402067:	85 c0                	test   %eax,%eax
  402069:	0f 84 91 00 00 00    	je     402100 <urlencode+0xd2>
  40206f:	0f b6 03             	movzbl (%rbx),%eax
  402072:	3c 2a                	cmp    $0x2a,%al
  402074:	0f 94 c1             	sete   %cl
  402077:	3c 2d                	cmp    $0x2d,%al
  402079:	0f 94 c2             	sete   %dl
  40207c:	08 d1                	or     %dl,%cl
  40207e:	75 d5                	jne    402055 <urlencode+0x27>
  402080:	3c 2e                	cmp    $0x2e,%al
  402082:	74 d1                	je     402055 <urlencode+0x27>
  402084:	3c 5f                	cmp    $0x5f,%al
  402086:	74 cd                	je     402055 <urlencode+0x27>
  402088:	8d 50 d0             	lea    -0x30(%rax),%edx
  40208b:	80 fa 09             	cmp    $0x9,%dl
  40208e:	76 c5                	jbe    402055 <urlencode+0x27>
  402090:	8d 50 bf             	lea    -0x41(%rax),%edx
  402093:	80 fa 19             	cmp    $0x19,%dl
  402096:	76 bd                	jbe    402055 <urlencode+0x27>
  402098:	8d 50 9f             	lea    -0x61(%rax),%edx
  40209b:	80 fa 19             	cmp    $0x19,%dl
  40209e:	76 b5                	jbe    402055 <urlencode+0x27>
  4020a0:	3c 20                	cmp    $0x20,%al
  4020a2:	74 4a                	je     4020ee <urlencode+0xc0>
  4020a4:	8d 50 e0             	lea    -0x20(%rax),%edx
  4020a7:	80 fa 5f             	cmp    $0x5f,%dl
  4020aa:	0f 96 c1             	setbe  %cl
  4020ad:	3c 09                	cmp    $0x9,%al
  4020af:	0f 94 c2             	sete   %dl
  4020b2:	08 d1                	or     %dl,%cl
  4020b4:	74 45                	je     4020fb <urlencode+0xcd>
  4020b6:	0f b6 d0             	movzbl %al,%edx
  4020b9:	be 78 3c 40 00       	mov    $0x403c78,%esi
  4020be:	48 8d 7c 24 08       	lea    0x8(%rsp),%rdi
  4020c3:	b8 00 00 00 00       	mov    $0x0,%eax
  4020c8:	e8 d3 ec ff ff       	callq  400da0 <sprintf@plt>
  4020cd:	0f b6 44 24 08       	movzbl 0x8(%rsp),%eax
  4020d2:	88 45 00             	mov    %al,0x0(%rbp)
  4020d5:	0f b6 44 24 09       	movzbl 0x9(%rsp),%eax
  4020da:	88 45 01             	mov    %al,0x1(%rbp)
  4020dd:	0f b6 44 24 0a       	movzbl 0xa(%rsp),%eax
  4020e2:	88 45 02             	mov    %al,0x2(%rbp)
  4020e5:	48 8d 6d 03          	lea    0x3(%rbp),%rbp
  4020e9:	e9 6e ff ff ff       	jmpq   40205c <urlencode+0x2e>
  4020ee:	c6 45 00 2b          	movb   $0x2b,0x0(%rbp)
  4020f2:	48 8d 6d 01          	lea    0x1(%rbp),%rbp
  4020f6:	e9 61 ff ff ff       	jmpq   40205c <urlencode+0x2e>
  4020fb:	b8 ff ff ff ff       	mov    $0xffffffff,%eax
  402100:	48 83 c4 10          	add    $0x10,%rsp
  402104:	5b                   	pop    %rbx
  402105:	5d                   	pop    %rbp
  402106:	41 5c                	pop    %r12
  402108:	c3                   	retq   

0000000000402109 <rio_writen>:
  402109:	41 55                	push   %r13
  40210b:	41 54                	push   %r12
  40210d:	55                   	push   %rbp
  40210e:	53                   	push   %rbx
  40210f:	48 83 ec 08          	sub    $0x8,%rsp
  402113:	41 89 fc             	mov    %edi,%r12d
  402116:	48 89 f5             	mov    %rsi,%rbp
  402119:	49 89 d5             	mov    %rdx,%r13
  40211c:	48 89 d3             	mov    %rdx,%rbx
  40211f:	eb 06                	jmp    402127 <rio_writen+0x1e>
  402121:	48 29 c3             	sub    %rax,%rbx
  402124:	48 01 c5             	add    %rax,%rbp
  402127:	48 85 db             	test   %rbx,%rbx
  40212a:	74 24                	je     402150 <rio_writen+0x47>
  40212c:	48 89 da             	mov    %rbx,%rdx
  40212f:	48 89 ee             	mov    %rbp,%rsi
  402132:	44 89 e7             	mov    %r12d,%edi
  402135:	e8 06 eb ff ff       	callq  400c40 <write@plt>
  40213a:	48 85 c0             	test   %rax,%rax
  40213d:	7f e2                	jg     402121 <rio_writen+0x18>
  40213f:	e8 ac ea ff ff       	callq  400bf0 <__errno_location@plt>
  402144:	83 38 04             	cmpl   $0x4,(%rax)
  402147:	75 15                	jne    40215e <rio_writen+0x55>
  402149:	b8 00 00 00 00       	mov    $0x0,%eax
  40214e:	eb d1                	jmp    402121 <rio_writen+0x18>
  402150:	4c 89 e8             	mov    %r13,%rax
  402153:	48 83 c4 08          	add    $0x8,%rsp
  402157:	5b                   	pop    %rbx
  402158:	5d                   	pop    %rbp
  402159:	41 5c                	pop    %r12
  40215b:	41 5d                	pop    %r13
  40215d:	c3                   	retq   
  40215e:	48 c7 c0 ff ff ff ff 	mov    $0xffffffffffffffff,%rax
  402165:	eb ec                	jmp    402153 <rio_writen+0x4a>

0000000000402167 <rio_read>:
  402167:	41 55                	push   %r13
  402169:	41 54                	push   %r12
  40216b:	55                   	push   %rbp
  40216c:	53                   	push   %rbx
  40216d:	48 83 ec 08          	sub    $0x8,%rsp
  402171:	48 89 fb             	mov    %rdi,%rbx
  402174:	49 89 f5             	mov    %rsi,%r13
  402177:	49 89 d4             	mov    %rdx,%r12
  40217a:	eb 0a                	jmp    402186 <rio_read+0x1f>
  40217c:	e8 6f ea ff ff       	callq  400bf0 <__errno_location@plt>
  402181:	83 38 04             	cmpl   $0x4,(%rax)
  402184:	75 5c                	jne    4021e2 <rio_read+0x7b>
  402186:	8b 6b 04             	mov    0x4(%rbx),%ebp
  402189:	85 ed                	test   %ebp,%ebp
  40218b:	7f 24                	jg     4021b1 <rio_read+0x4a>
  40218d:	48 8d 6b 10          	lea    0x10(%rbx),%rbp
  402191:	ba 00 20 00 00       	mov    $0x2000,%edx
  402196:	48 89 ee             	mov    %rbp,%rsi
  402199:	8b 3b                	mov    (%rbx),%edi
  40219b:	e8 00 eb ff ff       	callq  400ca0 <read@plt>
  4021a0:	89 43 04             	mov    %eax,0x4(%rbx)
  4021a3:	85 c0                	test   %eax,%eax
  4021a5:	78 d5                	js     40217c <rio_read+0x15>
  4021a7:	85 c0                	test   %eax,%eax
  4021a9:	74 40                	je     4021eb <rio_read+0x84>
  4021ab:	48 89 6b 08          	mov    %rbp,0x8(%rbx)
  4021af:	eb d5                	jmp    402186 <rio_read+0x1f>
  4021b1:	89 e8                	mov    %ebp,%eax
  4021b3:	4c 39 e0             	cmp    %r12,%rax
  4021b6:	72 03                	jb     4021bb <rio_read+0x54>
  4021b8:	44 89 e5             	mov    %r12d,%ebp
  4021bb:	4c 63 e5             	movslq %ebp,%r12
  4021be:	48 8b 73 08          	mov    0x8(%rbx),%rsi
  4021c2:	4c 89 e2             	mov    %r12,%rdx
  4021c5:	4c 89 ef             	mov    %r13,%rdi
  4021c8:	e8 23 eb ff ff       	callq  400cf0 <memcpy@plt>
  4021cd:	4c 01 63 08          	add    %r12,0x8(%rbx)
  4021d1:	29 6b 04             	sub    %ebp,0x4(%rbx)
  4021d4:	4c 89 e0             	mov    %r12,%rax
  4021d7:	48 83 c4 08          	add    $0x8,%rsp
  4021db:	5b                   	pop    %rbx
  4021dc:	5d                   	pop    %rbp
  4021dd:	41 5c                	pop    %r12
  4021df:	41 5d                	pop    %r13
  4021e1:	c3                   	retq   
  4021e2:	48 c7 c0 ff ff ff ff 	mov    $0xffffffffffffffff,%rax
  4021e9:	eb ec                	jmp    4021d7 <rio_read+0x70>
  4021eb:	b8 00 00 00 00       	mov    $0x0,%eax
  4021f0:	eb e5                	jmp    4021d7 <rio_read+0x70>

00000000004021f2 <rio_readlineb>:
  4021f2:	41 55                	push   %r13
  4021f4:	41 54                	push   %r12
  4021f6:	55                   	push   %rbp
  4021f7:	53                   	push   %rbx
  4021f8:	48 83 ec 18          	sub    $0x18,%rsp
  4021fc:	49 89 fd             	mov    %rdi,%r13
  4021ff:	48 89 f5             	mov    %rsi,%rbp
  402202:	49 89 d4             	mov    %rdx,%r12
  402205:	bb 01 00 00 00       	mov    $0x1,%ebx
  40220a:	4c 39 e3             	cmp    %r12,%rbx
  40220d:	73 47                	jae    402256 <rio_readlineb+0x64>
  40220f:	ba 01 00 00 00       	mov    $0x1,%edx
  402214:	48 8d 74 24 0f       	lea    0xf(%rsp),%rsi
  402219:	4c 89 ef             	mov    %r13,%rdi
  40221c:	e8 46 ff ff ff       	callq  402167 <rio_read>
  402221:	83 f8 01             	cmp    $0x1,%eax
  402224:	75 1c                	jne    402242 <rio_readlineb+0x50>
  402226:	48 8d 45 01          	lea    0x1(%rbp),%rax
  40222a:	0f b6 54 24 0f       	movzbl 0xf(%rsp),%edx
  40222f:	88 55 00             	mov    %dl,0x0(%rbp)
  402232:	80 7c 24 0f 0a       	cmpb   $0xa,0xf(%rsp)
  402237:	74 1a                	je     402253 <rio_readlineb+0x61>
  402239:	48 83 c3 01          	add    $0x1,%rbx
  40223d:	48 89 c5             	mov    %rax,%rbp
  402240:	eb c8                	jmp    40220a <rio_readlineb+0x18>
  402242:	85 c0                	test   %eax,%eax
  402244:	75 22                	jne    402268 <rio_readlineb+0x76>
  402246:	48 83 fb 01          	cmp    $0x1,%rbx
  40224a:	75 0a                	jne    402256 <rio_readlineb+0x64>
  40224c:	b8 00 00 00 00       	mov    $0x0,%eax
  402251:	eb 0a                	jmp    40225d <rio_readlineb+0x6b>
  402253:	48 89 c5             	mov    %rax,%rbp
  402256:	c6 45 00 00          	movb   $0x0,0x0(%rbp)
  40225a:	48 89 d8             	mov    %rbx,%rax
  40225d:	48 83 c4 18          	add    $0x18,%rsp
  402261:	5b                   	pop    %rbx
  402262:	5d                   	pop    %rbp
  402263:	41 5c                	pop    %r12
  402265:	41 5d                	pop    %r13
  402267:	c3                   	retq   
  402268:	48 c7 c0 ff ff ff ff 	mov    $0xffffffffffffffff,%rax
  40226f:	eb ec                	jmp    40225d <rio_readlineb+0x6b>

0000000000402271 <submitr>:
  402271:	41 57                	push   %r15
  402273:	41 56                	push   %r14
  402275:	41 55                	push   %r13
  402277:	41 54                	push   %r12
  402279:	55                   	push   %rbp
  40227a:	53                   	push   %rbx
  40227b:	48 81 ec 48 a0 00 00 	sub    $0xa048,%rsp
  402282:	49 89 fc             	mov    %rdi,%r12
  402285:	89 74 24 04          	mov    %esi,0x4(%rsp)
  402289:	49 89 d7             	mov    %rdx,%r15
  40228c:	49 89 ce             	mov    %rcx,%r14
  40228f:	4c 89 44 24 08       	mov    %r8,0x8(%rsp)
  402294:	4d 89 cd             	mov    %r9,%r13
  402297:	48 8b ac 24 80 a0 00 	mov    0xa080(%rsp),%rbp
  40229e:	00 
  40229f:	c7 84 24 1c 20 00 00 	movl   $0x0,0x201c(%rsp)
  4022a6:	00 00 00 00 
  4022aa:	ba 00 00 00 00       	mov    $0x0,%edx
  4022af:	be 01 00 00 00       	mov    $0x1,%esi
  4022b4:	bf 02 00 00 00       	mov    $0x2,%edi
  4022b9:	e8 12 eb ff ff       	callq  400dd0 <socket@plt>
  4022be:	85 c0                	test   %eax,%eax
  4022c0:	0f 88 86 02 00 00    	js     40254c <submitr+0x2db>
  4022c6:	89 c3                	mov    %eax,%ebx
  4022c8:	4c 89 e7             	mov    %r12,%rdi
  4022cb:	e8 f0 e9 ff ff       	callq  400cc0 <gethostbyname@plt>
  4022d0:	48 85 c0             	test   %rax,%rax
  4022d3:	0f 84 bf 02 00 00    	je     402598 <submitr+0x327>
  4022d9:	48 c7 84 24 30 a0 00 	movq   $0x0,0xa030(%rsp)
  4022e0:	00 00 00 00 00 
  4022e5:	48 c7 84 24 38 a0 00 	movq   $0x0,0xa038(%rsp)
  4022ec:	00 00 00 00 00 
  4022f1:	66 c7 84 24 30 a0 00 	movw   $0x2,0xa030(%rsp)
  4022f8:	00 02 00 
  4022fb:	48 8b 48 18          	mov    0x18(%rax),%rcx
  4022ff:	48 63 50 14          	movslq 0x14(%rax),%rdx
  402303:	48 8d b4 24 34 a0 00 	lea    0xa034(%rsp),%rsi
  40230a:	00 
  40230b:	48 8b 39             	mov    (%rcx),%rdi
  40230e:	e8 3d ea ff ff       	callq  400d50 <bcopy@plt>
  402313:	0f b7 44 24 04       	movzwl 0x4(%rsp),%eax
  402318:	66 c1 c8 08          	ror    $0x8,%ax
  40231c:	66 89 84 24 32 a0 00 	mov    %ax,0xa032(%rsp)
  402323:	00 
  402324:	ba 10 00 00 00       	mov    $0x10,%edx
  402329:	48 8d b4 24 30 a0 00 	lea    0xa030(%rsp),%rsi
  402330:	00 
  402331:	89 df                	mov    %ebx,%edi
  402333:	e8 88 ea ff ff       	callq  400dc0 <connect@plt>
  402338:	85 c0                	test   %eax,%eax
  40233a:	0f 88 c0 02 00 00    	js     402600 <submitr+0x38f>
  402340:	48 c7 c6 ff ff ff ff 	mov    $0xffffffffffffffff,%rsi
  402347:	b8 00 00 00 00       	mov    $0x0,%eax
  40234c:	48 89 f1             	mov    %rsi,%rcx
  40234f:	4c 89 ef             	mov    %r13,%rdi
  402352:	f2 ae                	repnz scas %es:(%rdi),%al
  402354:	48 89 ca             	mov    %rcx,%rdx
  402357:	48 f7 d2             	not    %rdx
  40235a:	48 89 f1             	mov    %rsi,%rcx
  40235d:	4c 89 ff             	mov    %r15,%rdi
  402360:	f2 ae                	repnz scas %es:(%rdi),%al
  402362:	48 f7 d1             	not    %rcx
  402365:	49 89 c8             	mov    %rcx,%r8
  402368:	48 89 f1             	mov    %rsi,%rcx
  40236b:	4c 89 f7             	mov    %r14,%rdi
  40236e:	f2 ae                	repnz scas %es:(%rdi),%al
  402370:	48 f7 d1             	not    %rcx
  402373:	4d 8d 44 08 fe       	lea    -0x2(%r8,%rcx,1),%r8
  402378:	48 89 f1             	mov    %rsi,%rcx
  40237b:	48 8b 7c 24 08       	mov    0x8(%rsp),%rdi
  402380:	f2 ae                	repnz scas %es:(%rdi),%al
  402382:	48 89 c8             	mov    %rcx,%rax
  402385:	48 f7 d0             	not    %rax
  402388:	49 8d 4c 00 ff       	lea    -0x1(%r8,%rax,1),%rcx
  40238d:	48 8d 44 52 fd       	lea    -0x3(%rdx,%rdx,2),%rax
  402392:	48 8d 84 01 80 00 00 	lea    0x80(%rcx,%rax,1),%rax
  402399:	00 
  40239a:	48 3d 00 20 00 00    	cmp    $0x2000,%rax
  4023a0:	0f 87 b4 02 00 00    	ja     40265a <submitr+0x3e9>
  4023a6:	48 8d b4 24 20 40 00 	lea    0x4020(%rsp),%rsi
  4023ad:	00 
  4023ae:	b9 00 04 00 00       	mov    $0x400,%ecx
  4023b3:	b8 00 00 00 00       	mov    $0x0,%eax
  4023b8:	48 89 f7             	mov    %rsi,%rdi
  4023bb:	f3 48 ab             	rep stos %rax,%es:(%rdi)
  4023be:	4c 89 ef             	mov    %r13,%rdi
  4023c1:	e8 68 fc ff ff       	callq  40202e <urlencode>
  4023c6:	85 c0                	test   %eax,%eax
  4023c8:	0f 88 ff 02 00 00    	js     4026cd <submitr+0x45c>
  4023ce:	4c 8d ac 24 20 60 00 	lea    0x6020(%rsp),%r13
  4023d5:	00 
  4023d6:	4d 89 e1             	mov    %r12,%r9
  4023d9:	4c 8d 84 24 20 40 00 	lea    0x4020(%rsp),%r8
  4023e0:	00 
  4023e1:	4c 89 f9             	mov    %r15,%rcx
  4023e4:	4c 89 f2             	mov    %r14,%rdx
  4023e7:	be 08 3c 40 00       	mov    $0x403c08,%esi
  4023ec:	4c 89 ef             	mov    %r13,%rdi
  4023ef:	b8 00 00 00 00       	mov    $0x0,%eax
  4023f4:	e8 a7 e9 ff ff       	callq  400da0 <sprintf@plt>
  4023f9:	48 c7 c1 ff ff ff ff 	mov    $0xffffffffffffffff,%rcx
  402400:	b8 00 00 00 00       	mov    $0x0,%eax
  402405:	4c 89 ef             	mov    %r13,%rdi
  402408:	f2 ae                	repnz scas %es:(%rdi),%al
  40240a:	48 89 ca             	mov    %rcx,%rdx
  40240d:	48 f7 d2             	not    %rdx
  402410:	48 8d 52 ff          	lea    -0x1(%rdx),%rdx
  402414:	4c 89 ee             	mov    %r13,%rsi
  402417:	89 df                	mov    %ebx,%edi
  402419:	e8 eb fc ff ff       	callq  402109 <rio_writen>
  40241e:	48 85 c0             	test   %rax,%rax
  402421:	0f 88 31 03 00 00    	js     402758 <submitr+0x4e7>
  402427:	89 de                	mov    %ebx,%esi
  402429:	48 8d bc 24 20 80 00 	lea    0x8020(%rsp),%rdi
  402430:	00 
  402431:	e8 bd fb ff ff       	callq  401ff3 <rio_readinitb>
  402436:	ba 00 20 00 00       	mov    $0x2000,%edx
  40243b:	48 8d b4 24 20 60 00 	lea    0x6020(%rsp),%rsi
  402442:	00 
  402443:	48 8d bc 24 20 80 00 	lea    0x8020(%rsp),%rdi
  40244a:	00 
  40244b:	e8 a2 fd ff ff       	callq  4021f2 <rio_readlineb>
  402450:	48 85 c0             	test   %rax,%rax
  402453:	0f 8e 6e 03 00 00    	jle    4027c7 <submitr+0x556>
  402459:	4c 8d 44 24 10       	lea    0x10(%rsp),%r8
  40245e:	48 8d 8c 24 1c 20 00 	lea    0x201c(%rsp),%rcx
  402465:	00 
  402466:	48 8d 94 24 20 20 00 	lea    0x2020(%rsp),%rdx
  40246d:	00 
  40246e:	be 7f 3c 40 00       	mov    $0x403c7f,%esi
  402473:	48 8d bc 24 20 60 00 	lea    0x6020(%rsp),%rdi
  40247a:	00 
  40247b:	b8 00 00 00 00       	mov    $0x0,%eax
  402480:	e8 ab e8 ff ff       	callq  400d30 <__isoc99_sscanf@plt>
  402485:	48 8d b4 24 20 60 00 	lea    0x6020(%rsp),%rsi
  40248c:	00 
  40248d:	bf 96 3c 40 00       	mov    $0x403c96,%edi
  402492:	b9 03 00 00 00       	mov    $0x3,%ecx
  402497:	f3 a6                	repz cmpsb %es:(%rdi),%ds:(%rsi)
  402499:	0f 97 c0             	seta   %al
  40249c:	1c 00                	sbb    $0x0,%al
  40249e:	84 c0                	test   %al,%al
  4024a0:	0f 84 9f 03 00 00    	je     402845 <submitr+0x5d4>
  4024a6:	ba 00 20 00 00       	mov    $0x2000,%edx
  4024ab:	48 8d b4 24 20 60 00 	lea    0x6020(%rsp),%rsi
  4024b2:	00 
  4024b3:	48 8d bc 24 20 80 00 	lea    0x8020(%rsp),%rdi
  4024ba:	00 
  4024bb:	e8 32 fd ff ff       	callq  4021f2 <rio_readlineb>
  4024c0:	48 85 c0             	test   %rax,%rax
  4024c3:	7f c0                	jg     402485 <submitr+0x214>
  4024c5:	48 b8 45 72 72 6f 72 	movabs $0x43203a726f727245,%rax
  4024cc:	3a 20 43 
  4024cf:	48 ba 6c 69 65 6e 74 	movabs $0x6e7520746e65696c,%rdx
  4024d6:	20 75 6e 
  4024d9:	48 89 45 00          	mov    %rax,0x0(%rbp)
  4024dd:	48 89 55 08          	mov    %rdx,0x8(%rbp)
  4024e1:	48 b8 61 62 6c 65 20 	movabs $0x206f7420656c6261,%rax
  4024e8:	74 6f 20 
  4024eb:	48 ba 72 65 61 64 20 	movabs $0x6165682064616572,%rdx
  4024f2:	68 65 61 
  4024f5:	48 89 45 10          	mov    %rax,0x10(%rbp)
  4024f9:	48 89 55 18          	mov    %rdx,0x18(%rbp)
  4024fd:	48 b8 64 65 72 73 20 	movabs $0x6f72662073726564,%rax
  402504:	66 72 6f 
  402507:	48 ba 6d 20 74 68 65 	movabs $0x657220656874206d,%rdx
  40250e:	20 72 65 
  402511:	48 89 45 20          	mov    %rax,0x20(%rbp)
  402515:	48 89 55 28          	mov    %rdx,0x28(%rbp)
  402519:	48 b8 73 75 6c 74 20 	movabs $0x72657320746c7573,%rax
  402520:	73 65 72 
  402523:	48 89 45 30          	mov    %rax,0x30(%rbp)
  402527:	c7 45 38 76 65 72 00 	movl   $0x726576,0x38(%rbp)
  40252e:	89 df                	mov    %ebx,%edi
  402530:	e8 5b e7 ff ff       	callq  400c90 <close@plt>
  402535:	b8 ff ff ff ff       	mov    $0xffffffff,%eax
  40253a:	48 81 c4 48 a0 00 00 	add    $0xa048,%rsp
  402541:	5b                   	pop    %rbx
  402542:	5d                   	pop    %rbp
  402543:	41 5c                	pop    %r12
  402545:	41 5d                	pop    %r13
  402547:	41 5e                	pop    %r14
  402549:	41 5f                	pop    %r15
  40254b:	c3                   	retq   
  40254c:	48 b8 45 72 72 6f 72 	movabs $0x43203a726f727245,%rax
  402553:	3a 20 43 
  402556:	48 ba 6c 69 65 6e 74 	movabs $0x6e7520746e65696c,%rdx
  40255d:	20 75 6e 
  402560:	48 89 45 00          	mov    %rax,0x0(%rbp)
  402564:	48 89 55 08          	mov    %rdx,0x8(%rbp)
  402568:	48 b8 61 62 6c 65 20 	movabs $0x206f7420656c6261,%rax
  40256f:	74 6f 20 
  402572:	48 ba 63 72 65 61 74 	movabs $0x7320657461657263,%rdx
  402579:	65 20 73 
  40257c:	48 89 45 10          	mov    %rax,0x10(%rbp)
  402580:	48 89 55 18          	mov    %rdx,0x18(%rbp)
  402584:	c7 45 20 6f 63 6b 65 	movl   $0x656b636f,0x20(%rbp)
  40258b:	66 c7 45 24 74 00    	movw   $0x74,0x24(%rbp)
  402591:	b8 ff ff ff ff       	mov    $0xffffffff,%eax
  402596:	eb a2                	jmp    40253a <submitr+0x2c9>
  402598:	48 b8 45 72 72 6f 72 	movabs $0x44203a726f727245,%rax
  40259f:	3a 20 44 
  4025a2:	48 ba 4e 53 20 69 73 	movabs $0x6e7520736920534e,%rdx
  4025a9:	20 75 6e 
  4025ac:	48 89 45 00          	mov    %rax,0x0(%rbp)
  4025b0:	48 89 55 08          	mov    %rdx,0x8(%rbp)
  4025b4:	48 b8 61 62 6c 65 20 	movabs $0x206f7420656c6261,%rax
  4025bb:	74 6f 20 
  4025be:	48 ba 72 65 73 6f 6c 	movabs $0x2065766c6f736572,%rdx
  4025c5:	76 65 20 
  4025c8:	48 89 45 10          	mov    %rax,0x10(%rbp)
  4025cc:	48 89 55 18          	mov    %rdx,0x18(%rbp)
  4025d0:	48 b8 73 65 72 76 65 	movabs $0x6120726576726573,%rax
  4025d7:	72 20 61 
  4025da:	48 89 45 20          	mov    %rax,0x20(%rbp)
  4025de:	c7 45 28 64 64 72 65 	movl   $0x65726464,0x28(%rbp)
  4025e5:	66 c7 45 2c 73 73    	movw   $0x7373,0x2c(%rbp)
  4025eb:	c6 45 2e 00          	movb   $0x0,0x2e(%rbp)
  4025ef:	89 df                	mov    %ebx,%edi
  4025f1:	e8 9a e6 ff ff       	callq  400c90 <close@plt>
  4025f6:	b8 ff ff ff ff       	mov    $0xffffffff,%eax
  4025fb:	e9 3a ff ff ff       	jmpq   40253a <submitr+0x2c9>
  402600:	48 b8 45 72 72 6f 72 	movabs $0x55203a726f727245,%rax
  402607:	3a 20 55 
  40260a:	48 ba 6e 61 62 6c 65 	movabs $0x6f7420656c62616e,%rdx
  402611:	20 74 6f 
  402614:	48 89 45 00          	mov    %rax,0x0(%rbp)
  402618:	48 89 55 08          	mov    %rdx,0x8(%rbp)
  40261c:	48 b8 20 63 6f 6e 6e 	movabs $0x7463656e6e6f6320,%rax
  402623:	65 63 74 
  402626:	48 ba 20 74 6f 20 74 	movabs $0x20656874206f7420,%rdx
  40262d:	68 65 20 
  402630:	48 89 45 10          	mov    %rax,0x10(%rbp)
  402634:	48 89 55 18          	mov    %rdx,0x18(%rbp)
  402638:	c7 45 20 73 65 72 76 	movl   $0x76726573,0x20(%rbp)
  40263f:	66 c7 45 24 65 72    	movw   $0x7265,0x24(%rbp)
  402645:	c6 45 26 00          	movb   $0x0,0x26(%rbp)
  402649:	89 df                	mov    %ebx,%edi
  40264b:	e8 40 e6 ff ff       	callq  400c90 <close@plt>
  402650:	b8 ff ff ff ff       	mov    $0xffffffff,%eax
  402655:	e9 e0 fe ff ff       	jmpq   40253a <submitr+0x2c9>
  40265a:	48 b8 45 72 72 6f 72 	movabs $0x52203a726f727245,%rax
  402661:	3a 20 52 
  402664:	48 ba 65 73 75 6c 74 	movabs $0x747320746c757365,%rdx
  40266b:	20 73 74 
  40266e:	48 89 45 00          	mov    %rax,0x0(%rbp)
  402672:	48 89 55 08          	mov    %rdx,0x8(%rbp)
  402676:	48 b8 72 69 6e 67 20 	movabs $0x6f6f7420676e6972,%rax
  40267d:	74 6f 6f 
  402680:	48 ba 20 6c 61 72 67 	movabs $0x202e656772616c20,%rdx
  402687:	65 2e 20 
  40268a:	48 89 45 10          	mov    %rax,0x10(%rbp)
  40268e:	48 89 55 18          	mov    %rdx,0x18(%rbp)
  402692:	48 b8 49 6e 63 72 65 	movabs $0x6573616572636e49,%rax
  402699:	61 73 65 
  40269c:	48 ba 20 53 55 42 4d 	movabs $0x5254494d42555320,%rdx
  4026a3:	49 54 52 
  4026a6:	48 89 45 20          	mov    %rax,0x20(%rbp)
  4026aa:	48 89 55 28          	mov    %rdx,0x28(%rbp)
  4026ae:	48 b8 5f 4d 41 58 42 	movabs $0x46554258414d5f,%rax
  4026b5:	55 46 00 
  4026b8:	48 89 45 30          	mov    %rax,0x30(%rbp)
  4026bc:	89 df                	mov    %ebx,%edi
  4026be:	e8 cd e5 ff ff       	callq  400c90 <close@plt>
  4026c3:	b8 ff ff ff ff       	mov    $0xffffffff,%eax
  4026c8:	e9 6d fe ff ff       	jmpq   40253a <submitr+0x2c9>
  4026cd:	48 b8 45 72 72 6f 72 	movabs $0x52203a726f727245,%rax
  4026d4:	3a 20 52 
  4026d7:	48 ba 65 73 75 6c 74 	movabs $0x747320746c757365,%rdx
  4026de:	20 73 74 
  4026e1:	48 89 45 00          	mov    %rax,0x0(%rbp)
  4026e5:	48 89 55 08          	mov    %rdx,0x8(%rbp)
  4026e9:	48 b8 72 69 6e 67 20 	movabs $0x6e6f6320676e6972,%rax
  4026f0:	63 6f 6e 
  4026f3:	48 ba 74 61 69 6e 73 	movabs $0x6e6120736e696174,%rdx
  4026fa:	20 61 6e 
  4026fd:	48 89 45 10          	mov    %rax,0x10(%rbp)
  402701:	48 89 55 18          	mov    %rdx,0x18(%rbp)
  402705:	48 b8 20 69 6c 6c 65 	movabs $0x6c6167656c6c6920,%rax
  40270c:	67 61 6c 
  40270f:	48 ba 20 6f 72 20 75 	movabs $0x72706e7520726f20,%rdx
  402716:	6e 70 72 
  402719:	48 89 45 20          	mov    %rax,0x20(%rbp)
  40271d:	48 89 55 28          	mov    %rdx,0x28(%rbp)
  402721:	48 b8 69 6e 74 61 62 	movabs $0x20656c6261746e69,%rax
  402728:	6c 65 20 
  40272b:	48 ba 63 68 61 72 61 	movabs $0x6574636172616863,%rdx
  402732:	63 74 65 
  402735:	48 89 45 30          	mov    %rax,0x30(%rbp)
  402739:	48 89 55 38          	mov    %rdx,0x38(%rbp)
  40273d:	66 c7 45 40 72 2e    	movw   $0x2e72,0x40(%rbp)
  402743:	c6 45 42 00          	movb   $0x0,0x42(%rbp)
  402747:	89 df                	mov    %ebx,%edi
  402749:	e8 42 e5 ff ff       	callq  400c90 <close@plt>
  40274e:	b8 ff ff ff ff       	mov    $0xffffffff,%eax
  402753:	e9 e2 fd ff ff       	jmpq   40253a <submitr+0x2c9>
  402758:	48 b8 45 72 72 6f 72 	movabs $0x43203a726f727245,%rax
  40275f:	3a 20 43 
  402762:	48 ba 6c 69 65 6e 74 	movabs $0x6e7520746e65696c,%rdx
  402769:	20 75 6e 
  40276c:	48 89 45 00          	mov    %rax,0x0(%rbp)
  402770:	48 89 55 08          	mov    %rdx,0x8(%rbp)
  402774:	48 b8 61 62 6c 65 20 	movabs $0x206f7420656c6261,%rax
  40277b:	74 6f 20 
  40277e:	48 ba 77 72 69 74 65 	movabs $0x6f74206574697277,%rdx
  402785:	20 74 6f 
  402788:	48 89 45 10          	mov    %rax,0x10(%rbp)
  40278c:	48 89 55 18          	mov    %rdx,0x18(%rbp)
  402790:	48 b8 20 74 68 65 20 	movabs $0x7365722065687420,%rax
  402797:	72 65 73 
  40279a:	48 ba 75 6c 74 20 73 	movabs $0x7672657320746c75,%rdx
  4027a1:	65 72 76 
  4027a4:	48 89 45 20          	mov    %rax,0x20(%rbp)
  4027a8:	48 89 55 28          	mov    %rdx,0x28(%rbp)
  4027ac:	66 c7 45 30 65 72    	movw   $0x7265,0x30(%rbp)
  4027b2:	c6 45 32 00          	movb   $0x0,0x32(%rbp)
  4027b6:	89 df                	mov    %ebx,%edi
  4027b8:	e8 d3 e4 ff ff       	callq  400c90 <close@plt>
  4027bd:	b8 ff ff ff ff       	mov    $0xffffffff,%eax
  4027c2:	e9 73 fd ff ff       	jmpq   40253a <submitr+0x2c9>
  4027c7:	48 b8 45 72 72 6f 72 	movabs $0x43203a726f727245,%rax
  4027ce:	3a 20 43 
  4027d1:	48 ba 6c 69 65 6e 74 	movabs $0x6e7520746e65696c,%rdx
  4027d8:	20 75 6e 
  4027db:	48 89 45 00          	mov    %rax,0x0(%rbp)
  4027df:	48 89 55 08          	mov    %rdx,0x8(%rbp)
  4027e3:	48 b8 61 62 6c 65 20 	movabs $0x206f7420656c6261,%rax
  4027ea:	74 6f 20 
  4027ed:	48 ba 72 65 61 64 20 	movabs $0x7269662064616572,%rdx
  4027f4:	66 69 72 
  4027f7:	48 89 45 10          	mov    %rax,0x10(%rbp)
  4027fb:	48 89 55 18          	mov    %rdx,0x18(%rbp)
  4027ff:	48 b8 73 74 20 68 65 	movabs $0x6564616568207473,%rax
  402806:	61 64 65 
  402809:	48 ba 72 20 66 72 6f 	movabs $0x72206d6f72662072,%rdx
  402810:	6d 20 72 
  402813:	48 89 45 20          	mov    %rax,0x20(%rbp)
  402817:	48 89 55 28          	mov    %rdx,0x28(%rbp)
  40281b:	48 b8 65 73 75 6c 74 	movabs $0x657320746c757365,%rax
  402822:	20 73 65 
  402825:	48 89 45 30          	mov    %rax,0x30(%rbp)
  402829:	c7 45 38 72 76 65 72 	movl   $0x72657672,0x38(%rbp)
  402830:	c6 45 3c 00          	movb   $0x0,0x3c(%rbp)
  402834:	89 df                	mov    %ebx,%edi
  402836:	e8 55 e4 ff ff       	callq  400c90 <close@plt>
  40283b:	b8 ff ff ff ff       	mov    $0xffffffff,%eax
  402840:	e9 f5 fc ff ff       	jmpq   40253a <submitr+0x2c9>
  402845:	ba 00 20 00 00       	mov    $0x2000,%edx
  40284a:	48 8d b4 24 20 60 00 	lea    0x6020(%rsp),%rsi
  402851:	00 
  402852:	48 8d bc 24 20 80 00 	lea    0x8020(%rsp),%rdi
  402859:	00 
  40285a:	e8 93 f9 ff ff       	callq  4021f2 <rio_readlineb>
  40285f:	48 85 c0             	test   %rax,%rax
  402862:	0f 8e 91 00 00 00    	jle    4028f9 <submitr+0x688>
  402868:	8b 94 24 1c 20 00 00 	mov    0x201c(%rsp),%edx
  40286f:	81 fa c8 00 00 00    	cmp    $0xc8,%edx
  402875:	0f 85 02 01 00 00    	jne    40297d <submitr+0x70c>
  40287b:	48 8d b4 24 20 60 00 	lea    0x6020(%rsp),%rsi
  402882:	00 
  402883:	48 89 ef             	mov    %rbp,%rdi
  402886:	e8 95 e3 ff ff       	callq  400c20 <strcpy@plt>
  40288b:	89 df                	mov    %ebx,%edi
  40288d:	e8 fe e3 ff ff       	callq  400c90 <close@plt>
  402892:	bf 90 3c 40 00       	mov    $0x403c90,%edi
  402897:	b9 04 00 00 00       	mov    $0x4,%ecx
  40289c:	48 89 ee             	mov    %rbp,%rsi
  40289f:	f3 a6                	repz cmpsb %es:(%rdi),%ds:(%rsi)
  4028a1:	0f 97 c0             	seta   %al
  4028a4:	1c 00                	sbb    $0x0,%al
  4028a6:	0f be c0             	movsbl %al,%eax
  4028a9:	85 c0                	test   %eax,%eax
  4028ab:	0f 84 89 fc ff ff    	je     40253a <submitr+0x2c9>
  4028b1:	bf 94 3c 40 00       	mov    $0x403c94,%edi
  4028b6:	b9 05 00 00 00       	mov    $0x5,%ecx
  4028bb:	48 89 ee             	mov    %rbp,%rsi
  4028be:	f3 a6                	repz cmpsb %es:(%rdi),%ds:(%rsi)
  4028c0:	0f 97 c0             	seta   %al
  4028c3:	1c 00                	sbb    $0x0,%al
  4028c5:	0f be c0             	movsbl %al,%eax
  4028c8:	85 c0                	test   %eax,%eax
  4028ca:	0f 84 6a fc ff ff    	je     40253a <submitr+0x2c9>
  4028d0:	bf 99 3c 40 00       	mov    $0x403c99,%edi
  4028d5:	b9 03 00 00 00       	mov    $0x3,%ecx
  4028da:	48 89 ee             	mov    %rbp,%rsi
  4028dd:	f3 a6                	repz cmpsb %es:(%rdi),%ds:(%rsi)
  4028df:	0f 97 c0             	seta   %al
  4028e2:	1c 00                	sbb    $0x0,%al
  4028e4:	0f be c0             	movsbl %al,%eax
  4028e7:	85 c0                	test   %eax,%eax
  4028e9:	0f 84 4b fc ff ff    	je     40253a <submitr+0x2c9>
  4028ef:	b8 ff ff ff ff       	mov    $0xffffffff,%eax
  4028f4:	e9 41 fc ff ff       	jmpq   40253a <submitr+0x2c9>
  4028f9:	48 b8 45 72 72 6f 72 	movabs $0x43203a726f727245,%rax
  402900:	3a 20 43 
  402903:	48 ba 6c 69 65 6e 74 	movabs $0x6e7520746e65696c,%rdx
  40290a:	20 75 6e 
  40290d:	48 89 45 00          	mov    %rax,0x0(%rbp)
  402911:	48 89 55 08          	mov    %rdx,0x8(%rbp)
  402915:	48 b8 61 62 6c 65 20 	movabs $0x206f7420656c6261,%rax
  40291c:	74 6f 20 
  40291f:	48 ba 72 65 61 64 20 	movabs $0x6174732064616572,%rdx
  402926:	73 74 61 
  402929:	48 89 45 10          	mov    %rax,0x10(%rbp)
  40292d:	48 89 55 18          	mov    %rdx,0x18(%rbp)
  402931:	48 b8 74 75 73 20 6d 	movabs $0x7373656d20737574,%rax
  402938:	65 73 73 
  40293b:	48 ba 61 67 65 20 66 	movabs $0x6d6f726620656761,%rdx
  402942:	72 6f 6d 
  402945:	48 89 45 20          	mov    %rax,0x20(%rbp)
  402949:	48 89 55 28          	mov    %rdx,0x28(%rbp)
  40294d:	48 b8 20 72 65 73 75 	movabs $0x20746c7573657220,%rax
  402954:	6c 74 20 
  402957:	48 89 45 30          	mov    %rax,0x30(%rbp)
  40295b:	c7 45 38 73 65 72 76 	movl   $0x76726573,0x38(%rbp)
  402962:	66 c7 45 3c 65 72    	movw   $0x7265,0x3c(%rbp)
  402968:	c6 45 3e 00          	movb   $0x0,0x3e(%rbp)
  40296c:	89 df                	mov    %ebx,%edi
  40296e:	e8 1d e3 ff ff       	callq  400c90 <close@plt>
  402973:	b8 ff ff ff ff       	mov    $0xffffffff,%eax
  402978:	e9 bd fb ff ff       	jmpq   40253a <submitr+0x2c9>
  40297d:	48 8d 4c 24 10       	lea    0x10(%rsp),%rcx
  402982:	be 48 3c 40 00       	mov    $0x403c48,%esi
  402987:	48 89 ef             	mov    %rbp,%rdi
  40298a:	b8 00 00 00 00       	mov    $0x0,%eax
  40298f:	e8 0c e4 ff ff       	callq  400da0 <sprintf@plt>
  402994:	89 df                	mov    %ebx,%edi
  402996:	e8 f5 e2 ff ff       	callq  400c90 <close@plt>
  40299b:	b8 ff ff ff ff       	mov    $0xffffffff,%eax
  4029a0:	e9 95 fb ff ff       	jmpq   40253a <submitr+0x2c9>

00000000004029a5 <init_timeout>:
  4029a5:	85 ff                	test   %edi,%edi
  4029a7:	74 26                	je     4029cf <init_timeout+0x2a>
  4029a9:	53                   	push   %rbx
  4029aa:	89 fb                	mov    %edi,%ebx
  4029ac:	85 ff                	test   %edi,%edi
  4029ae:	78 18                	js     4029c8 <init_timeout+0x23>
  4029b0:	be 05 20 40 00       	mov    $0x402005,%esi
  4029b5:	bf 0e 00 00 00       	mov    $0xe,%edi
  4029ba:	e8 f1 e2 ff ff       	callq  400cb0 <signal@plt>
  4029bf:	89 df                	mov    %ebx,%edi
  4029c1:	e8 ba e2 ff ff       	callq  400c80 <alarm@plt>
  4029c6:	5b                   	pop    %rbx
  4029c7:	c3                   	retq   
  4029c8:	bb 00 00 00 00       	mov    $0x0,%ebx
  4029cd:	eb e1                	jmp    4029b0 <init_timeout+0xb>
  4029cf:	f3 c3                	repz retq 

00000000004029d1 <init_driver>:
  4029d1:	55                   	push   %rbp
  4029d2:	53                   	push   %rbx
  4029d3:	48 83 ec 18          	sub    $0x18,%rsp
  4029d7:	48 89 fd             	mov    %rdi,%rbp
  4029da:	be 01 00 00 00       	mov    $0x1,%esi
  4029df:	bf 0d 00 00 00       	mov    $0xd,%edi
  4029e4:	e8 c7 e2 ff ff       	callq  400cb0 <signal@plt>
  4029e9:	be 01 00 00 00       	mov    $0x1,%esi
  4029ee:	bf 1d 00 00 00       	mov    $0x1d,%edi
  4029f3:	e8 b8 e2 ff ff       	callq  400cb0 <signal@plt>
  4029f8:	be 01 00 00 00       	mov    $0x1,%esi
  4029fd:	bf 1d 00 00 00       	mov    $0x1d,%edi
  402a02:	e8 a9 e2 ff ff       	callq  400cb0 <signal@plt>
  402a07:	ba 00 00 00 00       	mov    $0x0,%edx
  402a0c:	be 01 00 00 00       	mov    $0x1,%esi
  402a11:	bf 02 00 00 00       	mov    $0x2,%edi
  402a16:	e8 b5 e3 ff ff       	callq  400dd0 <socket@plt>
  402a1b:	85 c0                	test   %eax,%eax
  402a1d:	78 7c                	js     402a9b <init_driver+0xca>
  402a1f:	89 c3                	mov    %eax,%ebx
  402a21:	bf e1 37 40 00       	mov    $0x4037e1,%edi
  402a26:	e8 95 e2 ff ff       	callq  400cc0 <gethostbyname@plt>
  402a2b:	48 85 c0             	test   %rax,%rax
  402a2e:	0f 84 b3 00 00 00    	je     402ae7 <init_driver+0x116>
  402a34:	48 c7 04 24 00 00 00 	movq   $0x0,(%rsp)
  402a3b:	00 
  402a3c:	48 c7 44 24 08 00 00 	movq   $0x0,0x8(%rsp)
  402a43:	00 00 
  402a45:	66 c7 04 24 02 00    	movw   $0x2,(%rsp)
  402a4b:	48 8b 48 18          	mov    0x18(%rax),%rcx
  402a4f:	48 63 50 14          	movslq 0x14(%rax),%rdx
  402a53:	48 8d 74 24 04       	lea    0x4(%rsp),%rsi
  402a58:	48 8b 39             	mov    (%rcx),%rdi
  402a5b:	e8 f0 e2 ff ff       	callq  400d50 <bcopy@plt>
  402a60:	66 c7 44 24 02 4f ce 	movw   $0xce4f,0x2(%rsp)
  402a67:	ba 10 00 00 00       	mov    $0x10,%edx
  402a6c:	48 89 e6             	mov    %rsp,%rsi
  402a6f:	89 df                	mov    %ebx,%edi
  402a71:	e8 4a e3 ff ff       	callq  400dc0 <connect@plt>
  402a76:	85 c0                	test   %eax,%eax
  402a78:	0f 88 d1 00 00 00    	js     402b4f <init_driver+0x17e>
  402a7e:	89 df                	mov    %ebx,%edi
  402a80:	e8 0b e2 ff ff       	callq  400c90 <close@plt>
  402a85:	66 c7 45 00 4f 4b    	movw   $0x4b4f,0x0(%rbp)
  402a8b:	c6 45 02 00          	movb   $0x0,0x2(%rbp)
  402a8f:	b8 00 00 00 00       	mov    $0x0,%eax
  402a94:	48 83 c4 18          	add    $0x18,%rsp
  402a98:	5b                   	pop    %rbx
  402a99:	5d                   	pop    %rbp
  402a9a:	c3                   	retq   
  402a9b:	48 b8 45 72 72 6f 72 	movabs $0x43203a726f727245,%rax
  402aa2:	3a 20 43 
  402aa5:	48 ba 6c 69 65 6e 74 	movabs $0x6e7520746e65696c,%rdx
  402aac:	20 75 6e 
  402aaf:	48 89 45 00          	mov    %rax,0x0(%rbp)
  402ab3:	48 89 55 08          	mov    %rdx,0x8(%rbp)
  402ab7:	48 b8 61 62 6c 65 20 	movabs $0x206f7420656c6261,%rax
  402abe:	74 6f 20 
  402ac1:	48 ba 63 72 65 61 74 	movabs $0x7320657461657263,%rdx
  402ac8:	65 20 73 
  402acb:	48 89 45 10          	mov    %rax,0x10(%rbp)
  402acf:	48 89 55 18          	mov    %rdx,0x18(%rbp)
  402ad3:	c7 45 20 6f 63 6b 65 	movl   $0x656b636f,0x20(%rbp)
  402ada:	66 c7 45 24 74 00    	movw   $0x74,0x24(%rbp)
  402ae0:	b8 ff ff ff ff       	mov    $0xffffffff,%eax
  402ae5:	eb ad                	jmp    402a94 <init_driver+0xc3>
  402ae7:	48 b8 45 72 72 6f 72 	movabs $0x44203a726f727245,%rax
  402aee:	3a 20 44 
  402af1:	48 ba 4e 53 20 69 73 	movabs $0x6e7520736920534e,%rdx
  402af8:	20 75 6e 
  402afb:	48 89 45 00          	mov    %rax,0x0(%rbp)
  402aff:	48 89 55 08          	mov    %rdx,0x8(%rbp)
  402b03:	48 b8 61 62 6c 65 20 	movabs $0x206f7420656c6261,%rax
  402b0a:	74 6f 20 
  402b0d:	48 ba 72 65 73 6f 6c 	movabs $0x2065766c6f736572,%rdx
  402b14:	76 65 20 
  402b17:	48 89 45 10          	mov    %rax,0x10(%rbp)
  402b1b:	48 89 55 18          	mov    %rdx,0x18(%rbp)
  402b1f:	48 b8 73 65 72 76 65 	movabs $0x6120726576726573,%rax
  402b26:	72 20 61 
  402b29:	48 89 45 20          	mov    %rax,0x20(%rbp)
  402b2d:	c7 45 28 64 64 72 65 	movl   $0x65726464,0x28(%rbp)
  402b34:	66 c7 45 2c 73 73    	movw   $0x7373,0x2c(%rbp)
  402b3a:	c6 45 2e 00          	movb   $0x0,0x2e(%rbp)
  402b3e:	89 df                	mov    %ebx,%edi
  402b40:	e8 4b e1 ff ff       	callq  400c90 <close@plt>
  402b45:	b8 ff ff ff ff       	mov    $0xffffffff,%eax
  402b4a:	e9 45 ff ff ff       	jmpq   402a94 <init_driver+0xc3>
  402b4f:	48 b8 45 72 72 6f 72 	movabs $0x55203a726f727245,%rax
  402b56:	3a 20 55 
  402b59:	48 ba 6e 61 62 6c 65 	movabs $0x6f7420656c62616e,%rdx
  402b60:	20 74 6f 
  402b63:	48 89 45 00          	mov    %rax,0x0(%rbp)
  402b67:	48 89 55 08          	mov    %rdx,0x8(%rbp)
  402b6b:	48 b8 20 63 6f 6e 6e 	movabs $0x7463656e6e6f6320,%rax
  402b72:	65 63 74 
  402b75:	48 ba 20 74 6f 20 73 	movabs $0x76726573206f7420,%rdx
  402b7c:	65 72 76 
  402b7f:	48 89 45 10          	mov    %rax,0x10(%rbp)
  402b83:	48 89 55 18          	mov    %rdx,0x18(%rbp)
  402b87:	66 c7 45 20 65 72    	movw   $0x7265,0x20(%rbp)
  402b8d:	c6 45 22 00          	movb   $0x0,0x22(%rbp)
  402b91:	89 df                	mov    %ebx,%edi
  402b93:	e8 f8 e0 ff ff       	callq  400c90 <close@plt>
  402b98:	b8 ff ff ff ff       	mov    $0xffffffff,%eax
  402b9d:	e9 f2 fe ff ff       	jmpq   402a94 <init_driver+0xc3>

0000000000402ba2 <driver_post>:
  402ba2:	53                   	push   %rbx
  402ba3:	4c 89 cb             	mov    %r9,%rbx
  402ba6:	45 85 c0             	test   %r8d,%r8d
  402ba9:	75 18                	jne    402bc3 <driver_post+0x21>
  402bab:	48 85 ff             	test   %rdi,%rdi
  402bae:	74 05                	je     402bb5 <driver_post+0x13>
  402bb0:	80 3f 00             	cmpb   $0x0,(%rdi)
  402bb3:	75 30                	jne    402be5 <driver_post+0x43>
  402bb5:	66 c7 03 4f 4b       	movw   $0x4b4f,(%rbx)
  402bba:	c6 43 02 00          	movb   $0x0,0x2(%rbx)
  402bbe:	44 89 c0             	mov    %r8d,%eax
  402bc1:	5b                   	pop    %rbx
  402bc2:	c3                   	retq   
  402bc3:	48 89 ce             	mov    %rcx,%rsi
  402bc6:	bf 9c 3c 40 00       	mov    $0x403c9c,%edi
  402bcb:	b8 00 00 00 00       	mov    $0x0,%eax
  402bd0:	e8 8b e0 ff ff       	callq  400c60 <printf@plt>
  402bd5:	66 c7 03 4f 4b       	movw   $0x4b4f,(%rbx)
  402bda:	c6 43 02 00          	movb   $0x0,0x2(%rbx)
  402bde:	b8 00 00 00 00       	mov    $0x0,%eax
  402be3:	eb dc                	jmp    402bc1 <driver_post+0x1f>
  402be5:	48 83 ec 08          	sub    $0x8,%rsp
  402be9:	41 51                	push   %r9
  402beb:	49 89 c9             	mov    %rcx,%r9
  402bee:	49 89 d0             	mov    %rdx,%r8
  402bf1:	48 89 f9             	mov    %rdi,%rcx
  402bf4:	48 89 f2             	mov    %rsi,%rdx
  402bf7:	be ce 4f 00 00       	mov    $0x4fce,%esi
  402bfc:	bf e1 37 40 00       	mov    $0x4037e1,%edi
  402c01:	e8 6b f6 ff ff       	callq  402271 <submitr>
  402c06:	48 83 c4 10          	add    $0x10,%rsp
  402c0a:	eb b5                	jmp    402bc1 <driver_post+0x1f>

0000000000402c0c <check>:
  402c0c:	89 f8                	mov    %edi,%eax
  402c0e:	c1 e8 1c             	shr    $0x1c,%eax
  402c11:	85 c0                	test   %eax,%eax
  402c13:	74 1d                	je     402c32 <check+0x26>
  402c15:	b9 00 00 00 00       	mov    $0x0,%ecx
  402c1a:	83 f9 1f             	cmp    $0x1f,%ecx
  402c1d:	7f 0d                	jg     402c2c <check+0x20>
  402c1f:	89 f8                	mov    %edi,%eax
  402c21:	d3 e8                	shr    %cl,%eax
  402c23:	3c 0a                	cmp    $0xa,%al
  402c25:	74 11                	je     402c38 <check+0x2c>
  402c27:	83 c1 08             	add    $0x8,%ecx
  402c2a:	eb ee                	jmp    402c1a <check+0xe>
  402c2c:	b8 01 00 00 00       	mov    $0x1,%eax
  402c31:	c3                   	retq   
  402c32:	b8 00 00 00 00       	mov    $0x0,%eax
  402c37:	c3                   	retq   
  402c38:	b8 00 00 00 00       	mov    $0x0,%eax
  402c3d:	c3                   	retq   

0000000000402c3e <gencookie>:
  402c3e:	53                   	push   %rbx
  402c3f:	83 c7 01             	add    $0x1,%edi
  402c42:	e8 b9 df ff ff       	callq  400c00 <srandom@plt>
  402c47:	e8 c4 e0 ff ff       	callq  400d10 <random@plt>
  402c4c:	89 c3                	mov    %eax,%ebx
  402c4e:	89 c7                	mov    %eax,%edi
  402c50:	e8 b7 ff ff ff       	callq  402c0c <check>
  402c55:	85 c0                	test   %eax,%eax
  402c57:	74 ee                	je     402c47 <gencookie+0x9>
  402c59:	89 d8                	mov    %ebx,%eax
  402c5b:	5b                   	pop    %rbx
  402c5c:	c3                   	retq   
  402c5d:	0f 1f 00             	nopl   (%rax)

0000000000402c60 <__libc_csu_init>:
  402c60:	41 57                	push   %r15
  402c62:	41 56                	push   %r14
  402c64:	49 89 d7             	mov    %rdx,%r15
  402c67:	41 55                	push   %r13
  402c69:	41 54                	push   %r12
  402c6b:	4c 8d 25 9e 21 20 00 	lea    0x20219e(%rip),%r12        # 604e10 <__frame_dummy_init_array_entry>
  402c72:	55                   	push   %rbp
  402c73:	48 8d 2d 9e 21 20 00 	lea    0x20219e(%rip),%rbp        # 604e18 <__init_array_end>
  402c7a:	53                   	push   %rbx
  402c7b:	41 89 fd             	mov    %edi,%r13d
  402c7e:	49 89 f6             	mov    %rsi,%r14
  402c81:	4c 29 e5             	sub    %r12,%rbp
  402c84:	48 83 ec 08          	sub    $0x8,%rsp
  402c88:	48 c1 fd 03          	sar    $0x3,%rbp
  402c8c:	e8 1f df ff ff       	callq  400bb0 <_init>
  402c91:	48 85 ed             	test   %rbp,%rbp
  402c94:	74 18                	je     402cae <__libc_csu_init+0x4e>
  402c96:	31 db                	xor    %ebx,%ebx
  402c98:	4c 89 fa             	mov    %r15,%rdx
  402c9b:	4c 89 f6             	mov    %r14,%rsi
  402c9e:	44 89 ef             	mov    %r13d,%edi
  402ca1:	41 ff 14 dc          	callq  *(%r12,%rbx,8)
  402ca5:	48 83 c3 01          	add    $0x1,%rbx
  402ca9:	48 39 dd             	cmp    %rbx,%rbp
  402cac:	75 ea                	jne    402c98 <__libc_csu_init+0x38>
  402cae:	48 83 c4 08          	add    $0x8,%rsp
  402cb2:	5b                   	pop    %rbx
  402cb3:	5d                   	pop    %rbp
  402cb4:	41 5c                	pop    %r12
  402cb6:	41 5d                	pop    %r13
  402cb8:	41 5e                	pop    %r14
  402cba:	41 5f                	pop    %r15
  402cbc:	c3                   	retq   
  402cbd:	0f 1f 00             	nopl   (%rax)

0000000000402cc0 <__libc_csu_fini>:
  402cc0:	f3 c3                	repz retq 

Disassembly of section .fini:

0000000000402cc4 <_fini>:
  402cc4:	48 83 ec 08          	sub    $0x8,%rsp
  402cc8:	48 83 c4 08          	add    $0x8,%rsp
  402ccc:	c3                   	retq   
